GAS LISTING /tmp/cc4fXgpf.s 			page 1


   1              		.file	"MemoryAllocator.cpp"
   2              		.option pic
   3              		.option norelax
   4              		.text
   5              	.Ltext0:
   6              		.align	2
   7              		.globl	_ZN15MemoryAllocatorC2Ev
   9              	_ZN15MemoryAllocatorC2Ev:
  10              	.LFB2:
  11              		.file 1 "src/MemoryAllocator.cpp"
   1:src/MemoryAllocator.cpp **** #include "../h/MemoryAllocator.hpp"
   2:src/MemoryAllocator.cpp **** 
   3:src/MemoryAllocator.cpp **** MemoryAllocator& MemoryAllocator::getInstance() {
   4:src/MemoryAllocator.cpp ****     static MemoryAllocator instance;
   5:src/MemoryAllocator.cpp ****     return instance;
   6:src/MemoryAllocator.cpp **** }
   7:src/MemoryAllocator.cpp **** 
   8:src/MemoryAllocator.cpp **** MemoryAllocator::MemoryAllocator() {
  12              		.loc 1 8 1
  13              		.cfi_startproc
  14              	.LVL0:
  15 0000 130101FF 		addi	sp,sp,-16
  16              		.cfi_def_cfa_offset 16
  17 0004 23348100 		sd	s0,8(sp)
  18              		.cfi_offset 8, -8
  19 0008 13040101 		addi	s0,sp,16
  20              		.cfi_def_cfa 8, 0
  21              	.LBB2:
  22              		.loc 1 8 34 is_stmt 0
  23 000c 23300500 		sd	zero,0(a0)
   9:src/MemoryAllocator.cpp ****     head = (FreeMem*)HEAP_START_ADDR;
  24              		.loc 1 9 5 is_stmt 1
  25              		.loc 1 9 10 is_stmt 0
  26 0010 17070000 		la	a4,HEAP_START_ADDR
  26      03370700 
  27 0018 83370700 		ld	a5,0(a4)
  28 001c 2330F500 		sd	a5,0(a0)
  10:src/MemoryAllocator.cpp ****     head->prev = head->next = nullptr;
  29              		.loc 1 10 5 is_stmt 1
  30              		.loc 1 10 29 is_stmt 0
  31 0020 23B00700 		sd	zero,0(a5)
  32              		.loc 1 10 5
  33 0024 83370500 		ld	a5,0(a0)
  34              		.loc 1 10 16
  35 0028 23B40700 		sd	zero,8(a5)
  11:src/MemoryAllocator.cpp ****     head->sizeofblock = (char*)HEAP_END_ADDR - (char*)HEAP_START_ADDR;
  36              		.loc 1 11 5 is_stmt 1
  37              		.loc 1 11 25 is_stmt 0
  38 002c 97070000 		la	a5,HEAP_END_ADDR
  38      83B70700 
  39 0034 83B70700 		ld	a5,0(a5)
  40              		.loc 1 11 48
  41 0038 83360700 		ld	a3,0(a4)
  42              		.loc 1 11 5
  43 003c 03370500 		ld	a4,0(a0)
  44              		.loc 1 11 46
  45 0040 B387D740 		sub	a5,a5,a3
GAS LISTING /tmp/cc4fXgpf.s 			page 2


  46              		.loc 1 11 23
  47 0044 2338F700 		sd	a5,16(a4)
  48              	.LBE2:
  12:src/MemoryAllocator.cpp **** }
  49              		.loc 1 12 1
  50 0048 03348100 		ld	s0,8(sp)
  51              		.cfi_restore 8
  52              		.cfi_def_cfa 2, 16
  53 004c 13010101 		addi	sp,sp,16
  54              		.cfi_def_cfa_offset 0
  55 0050 67800000 		jr	ra
  56              		.cfi_endproc
  57              	.LFE2:
  59              		.globl	_ZN15MemoryAllocatorC1Ev
  60              		.set	_ZN15MemoryAllocatorC1Ev,_ZN15MemoryAllocatorC2Ev
  61              		.align	2
  62              		.globl	_ZN15MemoryAllocator11getInstanceEv
  64              	_ZN15MemoryAllocator11getInstanceEv:
  65              	.LFB0:
   3:src/MemoryAllocator.cpp ****     static MemoryAllocator instance;
  66              		.loc 1 3 49 is_stmt 1
  67              		.cfi_startproc
   4:src/MemoryAllocator.cpp ****     return instance;
  68              		.loc 1 4 5
   4:src/MemoryAllocator.cpp ****     return instance;
  69              		.loc 1 4 28 is_stmt 0
  70 0054 97070000 		lbu	a5,.LANCHOR0
  70      83C70700 
  71 005c 63880700 		beqz	a5,.L9
   5:src/MemoryAllocator.cpp **** }
  72              		.loc 1 5 5 is_stmt 1
   6:src/MemoryAllocator.cpp **** 
  73              		.loc 1 6 1 is_stmt 0
  74 0060 17050000 		lla	a0,.LANCHOR0+8
  74      13050500 
  75 0068 67800000 		ret
  76              	.L9:
   3:src/MemoryAllocator.cpp ****     static MemoryAllocator instance;
  77              		.loc 1 3 49 discriminator 1
  78 006c 130101FF 		addi	sp,sp,-16
  79              		.cfi_def_cfa_offset 16
  80 0070 23341100 		sd	ra,8(sp)
  81 0074 23308100 		sd	s0,0(sp)
  82              		.cfi_offset 1, -8
  83              		.cfi_offset 8, -16
  84 0078 13040101 		addi	s0,sp,16
  85              		.cfi_def_cfa 8, 0
   4:src/MemoryAllocator.cpp ****     return instance;
  86              		.loc 1 4 28 discriminator 1
  87 007c 17050000 		lla	a0,.LANCHOR0+8
  87      13050500 
  88 0084 97000000 		call	_ZN15MemoryAllocatorC1Ev
  88      E7800000 
  89              	.LVL1:
  90 008c 93071000 		li	a5,1
  91 0090 17070000 		sb	a5,.LANCHOR0,a4
  91      2300F700 
GAS LISTING /tmp/cc4fXgpf.s 			page 3


   5:src/MemoryAllocator.cpp **** }
  92              		.loc 1 5 5 is_stmt 1 discriminator 1
   6:src/MemoryAllocator.cpp **** 
  93              		.loc 1 6 1 is_stmt 0 discriminator 1
  94 0098 17050000 		lla	a0,.LANCHOR0+8
  94      13050500 
  95 00a0 83308100 		ld	ra,8(sp)
  96              		.cfi_restore 1
  97 00a4 03340100 		ld	s0,0(sp)
  98              		.cfi_restore 8
  99              		.cfi_def_cfa 2, 16
 100 00a8 13010101 		addi	sp,sp,16
 101              		.cfi_def_cfa_offset 0
 102 00ac 67800000 		jr	ra
 103              		.cfi_endproc
 104              	.LFE0:
 106              		.align	2
 107              		.globl	_ZN15MemoryAllocator11MemoryAllocEm
 109              	_ZN15MemoryAllocator11MemoryAllocEm:
 110              	.LFB4:
  13:src/MemoryAllocator.cpp **** 
  14:src/MemoryAllocator.cpp **** void * MemoryAllocator::MemoryAlloc(size_t bytes) {
 111              		.loc 1 14 51 is_stmt 1
 112              		.cfi_startproc
 113              	.LVL2:
 114 00b0 130101FF 		addi	sp,sp,-16
 115              		.cfi_def_cfa_offset 16
 116 00b4 23348100 		sd	s0,8(sp)
 117              		.cfi_offset 8, -8
 118 00b8 13040101 		addi	s0,sp,16
 119              		.cfi_def_cfa 8, 0
 120 00bc 93060500 		mv	a3,a0
  15:src/MemoryAllocator.cpp ****     // Try to find an existing free block in the list (first fit):
  16:src/MemoryAllocator.cpp ****     FreeMem *blk = head, *prev = nullptr;
 121              		.loc 1 16 5
 122              		.loc 1 16 14 is_stmt 0
 123 00c0 03350500 		ld	a0,0(a0)
 124              	.LVL3:
 125              		.loc 1 16 27
 126 00c4 13070000 		li	a4,0
 127              	.LVL4:
 128              	.L12:
  17:src/MemoryAllocator.cpp ****     for (; blk!=nullptr; prev=blk, blk=blk->next)
 129              		.loc 1 17 5 is_stmt 1 discriminator 1
 130              		.loc 1 17 15 discriminator 1
 131 00c8 630C0500 		beqz	a0,.L11
  18:src/MemoryAllocator.cpp ****         if (blk->sizeofblock>=bytes) break;
 132              		.loc 1 18 9
 133              		.loc 1 18 18 is_stmt 0
 134 00cc 83370501 		ld	a5,16(a0)
 135              		.loc 1 18 9
 136 00d0 63F8B700 		bgeu	a5,a1,.L11
  17:src/MemoryAllocator.cpp ****     for (; blk!=nullptr; prev=blk, blk=blk->next)
 137              		.loc 1 17 5 is_stmt 1
 138              	.LVL5:
  17:src/MemoryAllocator.cpp ****     for (; blk!=nullptr; prev=blk, blk=blk->next)
 139              		.loc 1 17 30 is_stmt 0
GAS LISTING /tmp/cc4fXgpf.s 			page 4


 140 00d4 13070500 		mv	a4,a0
  17:src/MemoryAllocator.cpp ****     for (; blk!=nullptr; prev=blk, blk=blk->next)
 141              		.loc 1 17 39
 142 00d8 03350500 		ld	a0,0(a0)
 143              	.LVL6:
  17:src/MemoryAllocator.cpp ****     for (; blk!=nullptr; prev=blk, blk=blk->next)
 144              		.loc 1 17 5
 145 00dc 6FF0DFFE 		j	.L12
 146              	.L11:
  19:src/MemoryAllocator.cpp ****     if (blk == nullptr) {
 147              		.loc 1 19 5 is_stmt 1
 148 00e0 630E0502 		beqz	a0,.L10
  20:src/MemoryAllocator.cpp ****         return nullptr;
  21:src/MemoryAllocator.cpp ****     }
  22:src/MemoryAllocator.cpp **** // Allocate the requested block:
  23:src/MemoryAllocator.cpp ****     size_t remainingSize = blk->sizeofblock - bytes;
 149              		.loc 1 23 5
 150              		.loc 1 23 33 is_stmt 0
 151 00e4 83370501 		ld	a5,16(a0)
 152              		.loc 1 23 12
 153 00e8 3386B740 		sub	a2,a5,a1
 154              	.LVL7:
  24:src/MemoryAllocator.cpp ****     if (remainingSize > 0) {
 155              		.loc 1 24 5 is_stmt 1
 156              	.LBB3:
 157 00ec 6384B704 		beq	a5,a1,.L14
 158              	.LBB4:
  25:src/MemoryAllocator.cpp **** // A fragment remains
  26:src/MemoryAllocator.cpp ****         FreeMem* newBlk = (FreeMem*)((char*)blk + bytes);
 159              		.loc 1 26 9
 160              		.loc 1 26 18 is_stmt 0
 161 00f0 B307B500 		add	a5,a0,a1
 162              	.LVL8:
  27:src/MemoryAllocator.cpp ****         if (prev) {
 163              		.loc 1 27 9 is_stmt 1
 164 00f4 630A0702 		beqz	a4,.L15
  28:src/MemoryAllocator.cpp ****             prev->next = newBlk;
 165              		.loc 1 28 13
 166              		.loc 1 28 24 is_stmt 0
 167 00f8 2330F700 		sd	a5,0(a4)
  29:src/MemoryAllocator.cpp ****             newBlk->prev = prev;
 168              		.loc 1 29 13 is_stmt 1
 169              		.loc 1 29 26 is_stmt 0
 170 00fc 23B4E700 		sd	a4,8(a5)
 171              	.L16:
  30:src/MemoryAllocator.cpp ****         } else {
  31:src/MemoryAllocator.cpp ****             head = newBlk;
  32:src/MemoryAllocator.cpp ****             newBlk->prev = nullptr;
  33:src/MemoryAllocator.cpp ****         }
  34:src/MemoryAllocator.cpp **** 
  35:src/MemoryAllocator.cpp ****         newBlk->next = blk->next;
 172              		.loc 1 35 9 is_stmt 1
 173              		.loc 1 35 29 is_stmt 0
 174 0100 03370500 		ld	a4,0(a0)
 175              	.LVL9:
 176              		.loc 1 35 22
 177 0104 23B0E700 		sd	a4,0(a5)
GAS LISTING /tmp/cc4fXgpf.s 			page 5


  36:src/MemoryAllocator.cpp ****         if(blk->next) {
 178              		.loc 1 36 9 is_stmt 1
 179 0108 63040700 		beqz	a4,.L17
  37:src/MemoryAllocator.cpp ****             blk->next->prev = newBlk;
 180              		.loc 1 37 13
 181              		.loc 1 37 29 is_stmt 0
 182 010c 2334F700 		sd	a5,8(a4)
 183              	.L17:
  38:src/MemoryAllocator.cpp ****         }
  39:src/MemoryAllocator.cpp ****         newBlk->sizeofblock = remainingSize;
 184              		.loc 1 39 9 is_stmt 1
 185              		.loc 1 39 29 is_stmt 0
 186 0110 23B8C700 		sd	a2,16(a5)
 187              	.LVL10:
 188              	.L18:
 189              	.LBE4:
 190              	.LBE3:
  40:src/MemoryAllocator.cpp ****     } else {
  41:src/MemoryAllocator.cpp **** // No remaining fragment, allocate the entire block
  42:src/MemoryAllocator.cpp ****         if (prev) {
  43:src/MemoryAllocator.cpp ****             prev->next = blk->next;
  44:src/MemoryAllocator.cpp ****             if(blk->next)
  45:src/MemoryAllocator.cpp ****                 blk->next->prev=prev;
  46:src/MemoryAllocator.cpp ****         } else {
  47:src/MemoryAllocator.cpp ****             head = blk->next;
  48:src/MemoryAllocator.cpp ****             if(blk->next)
  49:src/MemoryAllocator.cpp ****                 blk->next->prev=nullptr;
  50:src/MemoryAllocator.cpp ****         }
  51:src/MemoryAllocator.cpp ****     }
  52:src/MemoryAllocator.cpp **** 
  53:src/MemoryAllocator.cpp ****     size_t* newPtr = (size_t*)blk;
 191              		.loc 1 53 5 is_stmt 1
  54:src/MemoryAllocator.cpp ****     *newPtr = bytes;
 192              		.loc 1 54 5
 193              		.loc 1 54 13 is_stmt 0
 194 0114 2330B500 		sd	a1,0(a0)
  55:src/MemoryAllocator.cpp **** 
  56:src/MemoryAllocator.cpp ****     return newPtr+1;
 195              		.loc 1 56 5 is_stmt 1
 196              		.loc 1 56 19 is_stmt 0
 197 0118 13058500 		addi	a0,a0,8
 198              	.LVL11:
 199              	.L10:
  57:src/MemoryAllocator.cpp **** }
 200              		.loc 1 57 1
 201 011c 03348100 		ld	s0,8(sp)
 202              		.cfi_remember_state
 203              		.cfi_restore 8
 204              		.cfi_def_cfa 2, 16
 205 0120 13010101 		addi	sp,sp,16
 206              		.cfi_def_cfa_offset 0
 207 0124 67800000 		jr	ra
 208              	.LVL12:
 209              	.L15:
 210              		.cfi_restore_state
 211              	.LBB6:
 212              	.LBB5:
GAS LISTING /tmp/cc4fXgpf.s 			page 6


  31:src/MemoryAllocator.cpp ****             newBlk->prev = nullptr;
 213              		.loc 1 31 13 is_stmt 1
  31:src/MemoryAllocator.cpp ****             newBlk->prev = nullptr;
 214              		.loc 1 31 18 is_stmt 0
 215 0128 23B0F600 		sd	a5,0(a3)
  32:src/MemoryAllocator.cpp ****         }
 216              		.loc 1 32 13 is_stmt 1
  32:src/MemoryAllocator.cpp ****         }
 217              		.loc 1 32 26 is_stmt 0
 218 012c 23B40700 		sd	zero,8(a5)
 219 0130 6FF01FFD 		j	.L16
 220              	.LVL13:
 221              	.L14:
 222              	.LBE5:
  42:src/MemoryAllocator.cpp ****             prev->next = blk->next;
 223              		.loc 1 42 9 is_stmt 1
 224 0134 630E0700 		beqz	a4,.L19
  43:src/MemoryAllocator.cpp ****             if(blk->next)
 225              		.loc 1 43 13
  43:src/MemoryAllocator.cpp ****             if(blk->next)
 226              		.loc 1 43 31 is_stmt 0
 227 0138 83370500 		ld	a5,0(a0)
  43:src/MemoryAllocator.cpp ****             if(blk->next)
 228              		.loc 1 43 24
 229 013c 2330F700 		sd	a5,0(a4)
  44:src/MemoryAllocator.cpp ****                 blk->next->prev=prev;
 230              		.loc 1 44 13 is_stmt 1
  44:src/MemoryAllocator.cpp ****                 blk->next->prev=prev;
 231              		.loc 1 44 21 is_stmt 0
 232 0140 83370500 		ld	a5,0(a0)
  44:src/MemoryAllocator.cpp ****                 blk->next->prev=prev;
 233              		.loc 1 44 13
 234 0144 E38807FC 		beqz	a5,.L18
  45:src/MemoryAllocator.cpp ****         } else {
 235              		.loc 1 45 17 is_stmt 1
  45:src/MemoryAllocator.cpp ****         } else {
 236              		.loc 1 45 32 is_stmt 0
 237 0148 23B4E700 		sd	a4,8(a5)
 238 014c 6FF09FFC 		j	.L18
 239              	.L19:
  47:src/MemoryAllocator.cpp ****             if(blk->next)
 240              		.loc 1 47 13 is_stmt 1
  47:src/MemoryAllocator.cpp ****             if(blk->next)
 241              		.loc 1 47 25 is_stmt 0
 242 0150 83370500 		ld	a5,0(a0)
  47:src/MemoryAllocator.cpp ****             if(blk->next)
 243              		.loc 1 47 18
 244 0154 23B0F600 		sd	a5,0(a3)
  48:src/MemoryAllocator.cpp ****                 blk->next->prev=nullptr;
 245              		.loc 1 48 13 is_stmt 1
  48:src/MemoryAllocator.cpp ****                 blk->next->prev=nullptr;
 246              		.loc 1 48 21 is_stmt 0
 247 0158 83370500 		ld	a5,0(a0)
  48:src/MemoryAllocator.cpp ****                 blk->next->prev=nullptr;
 248              		.loc 1 48 13
 249 015c E38C07FA 		beqz	a5,.L18
  49:src/MemoryAllocator.cpp ****         }
GAS LISTING /tmp/cc4fXgpf.s 			page 7


 250              		.loc 1 49 17 is_stmt 1
  49:src/MemoryAllocator.cpp ****         }
 251              		.loc 1 49 32 is_stmt 0
 252 0160 23B40700 		sd	zero,8(a5)
 253 0164 6FF01FFB 		j	.L18
 254              	.LBE6:
 255              		.cfi_endproc
 256              	.LFE4:
 258              		.align	2
 259              		.globl	_ZN15MemoryAllocator9tryToJoinEPNS_7FreeMemE
 261              	_ZN15MemoryAllocator9tryToJoinEPNS_7FreeMemE:
 262              	.LFB6:
  58:src/MemoryAllocator.cpp **** 
  59:src/MemoryAllocator.cpp **** void MemoryAllocator::MemoryFree(void * ptr) {
  60:src/MemoryAllocator.cpp ****     size_t* realStart = (size_t*)(ptr) - 1;
  61:src/MemoryAllocator.cpp ****     size_t bytes = *realStart;
  62:src/MemoryAllocator.cpp **** 
  63:src/MemoryAllocator.cpp ****     FreeMem* cur=0;
  64:src/MemoryAllocator.cpp ****     if (!head || realStart<(size_t *)head)
  65:src/MemoryAllocator.cpp ****         cur = 0;
  66:src/MemoryAllocator.cpp ****     else
  67:src/MemoryAllocator.cpp ****         for (cur=head; cur->next!=0 && realStart>(size_t *)(cur->next); cur=cur->next);
  68:src/MemoryAllocator.cpp ****     FreeMem* newSeg = (FreeMem*)realStart;
  69:src/MemoryAllocator.cpp ****     newSeg->sizeofblock = bytes;
  70:src/MemoryAllocator.cpp ****     newSeg->prev = cur;
  71:src/MemoryAllocator.cpp ****     if (cur) newSeg->next = cur->next;
  72:src/MemoryAllocator.cpp ****     else newSeg->next = head;
  73:src/MemoryAllocator.cpp ****     if (newSeg->next) newSeg->next->prev = newSeg;
  74:src/MemoryAllocator.cpp ****     if (cur) cur->next = newSeg;
  75:src/MemoryAllocator.cpp ****     else head = newSeg;
  76:src/MemoryAllocator.cpp ****     tryToJoin(newSeg);
  77:src/MemoryAllocator.cpp ****     tryToJoin(cur);
  78:src/MemoryAllocator.cpp **** }
  79:src/MemoryAllocator.cpp **** 
  80:src/MemoryAllocator.cpp **** 
  81:src/MemoryAllocator.cpp **** void MemoryAllocator::tryToJoin (FreeMem* cur) {
 263              		.loc 1 81 48 is_stmt 1
 264              		.cfi_startproc
 265              	.LVL14:
 266 0168 130101FF 		addi	sp,sp,-16
 267              		.cfi_def_cfa_offset 16
 268 016c 23348100 		sd	s0,8(sp)
 269              		.cfi_offset 8, -8
 270 0170 13040101 		addi	s0,sp,16
 271              		.cfi_def_cfa 8, 0
  82:src/MemoryAllocator.cpp ****     if (!cur) return;
 272              		.loc 1 82 5
 273 0174 638C0500 		beqz	a1,.L21
  83:src/MemoryAllocator.cpp ****     if (cur->next && (char*)cur+cur->sizeofblock == (char*)(cur->next)) {
 274              		.loc 1 83 5
 275              		.loc 1 83 14 is_stmt 0
 276 0178 83B70500 		ld	a5,0(a1)
 277              		.loc 1 83 5
 278 017c 63880700 		beqz	a5,.L21
 279              		.loc 1 83 38 discriminator 1
 280 0180 03B70501 		ld	a4,16(a1)
 281              		.loc 1 83 32 discriminator 1
GAS LISTING /tmp/cc4fXgpf.s 			page 8


 282 0184 B386E500 		add	a3,a1,a4
 283              		.loc 1 83 19 discriminator 1
 284 0188 6388D700 		beq	a5,a3,.L24
 285              	.L21:
  84:src/MemoryAllocator.cpp ****         cur->sizeofblock += cur->next->sizeofblock;
  85:src/MemoryAllocator.cpp ****         cur->next = cur->next->next;
  86:src/MemoryAllocator.cpp ****         if (cur->next) cur->next->prev = cur;
  87:src/MemoryAllocator.cpp ****     }
  88:src/MemoryAllocator.cpp **** }
 286              		.loc 1 88 1
 287 018c 03348100 		ld	s0,8(sp)
 288              		.cfi_remember_state
 289              		.cfi_restore 8
 290              		.cfi_def_cfa 2, 16
 291 0190 13010101 		addi	sp,sp,16
 292              		.cfi_def_cfa_offset 0
 293 0194 67800000 		jr	ra
 294              	.L24:
 295              		.cfi_restore_state
  84:src/MemoryAllocator.cpp ****         cur->sizeofblock += cur->next->sizeofblock;
 296              		.loc 1 84 9 is_stmt 1
  84:src/MemoryAllocator.cpp ****         cur->sizeofblock += cur->next->sizeofblock;
 297              		.loc 1 84 40 is_stmt 0
 298 0198 83B60701 		ld	a3,16(a5)
  84:src/MemoryAllocator.cpp ****         cur->sizeofblock += cur->next->sizeofblock;
 299              		.loc 1 84 26
 300 019c 3307D700 		add	a4,a4,a3
 301 01a0 23B8E500 		sd	a4,16(a1)
  85:src/MemoryAllocator.cpp ****         if (cur->next) cur->next->prev = cur;
 302              		.loc 1 85 9 is_stmt 1
  85:src/MemoryAllocator.cpp ****         if (cur->next) cur->next->prev = cur;
 303              		.loc 1 85 32 is_stmt 0
 304 01a4 83B70700 		ld	a5,0(a5)
  85:src/MemoryAllocator.cpp ****         if (cur->next) cur->next->prev = cur;
 305              		.loc 1 85 19
 306 01a8 23B0F500 		sd	a5,0(a1)
  86:src/MemoryAllocator.cpp ****     }
 307              		.loc 1 86 9 is_stmt 1
 308 01ac E38007FE 		beqz	a5,.L21
  86:src/MemoryAllocator.cpp ****     }
 309              		.loc 1 86 24 discriminator 1
  86:src/MemoryAllocator.cpp ****     }
 310              		.loc 1 86 40 is_stmt 0 discriminator 1
 311 01b0 23B4B700 		sd	a1,8(a5)
 312 01b4 6FF09FFD 		j	.L21
 313              		.cfi_endproc
 314              	.LFE6:
 316              		.align	2
 317              		.globl	_ZN15MemoryAllocator10MemoryFreeEPv
 319              	_ZN15MemoryAllocator10MemoryFreeEPv:
 320              	.LFB5:
  59:src/MemoryAllocator.cpp ****     size_t* realStart = (size_t*)(ptr) - 1;
 321              		.loc 1 59 46 is_stmt 1
 322              		.cfi_startproc
 323              	.LVL15:
 324 01b8 130101FE 		addi	sp,sp,-32
 325              		.cfi_def_cfa_offset 32
GAS LISTING /tmp/cc4fXgpf.s 			page 9


 326 01bc 233C1100 		sd	ra,24(sp)
 327 01c0 23388100 		sd	s0,16(sp)
 328 01c4 23349100 		sd	s1,8(sp)
 329 01c8 23302101 		sd	s2,0(sp)
 330              		.cfi_offset 1, -8
 331              		.cfi_offset 8, -16
 332              		.cfi_offset 9, -24
 333              		.cfi_offset 18, -32
 334 01cc 13040102 		addi	s0,sp,32
 335              		.cfi_def_cfa 8, 0
 336 01d0 13090500 		mv	s2,a0
 337 01d4 13870500 		mv	a4,a1
  60:src/MemoryAllocator.cpp ****     size_t bytes = *realStart;
 338              		.loc 1 60 5
  60:src/MemoryAllocator.cpp ****     size_t bytes = *realStart;
 339              		.loc 1 60 13 is_stmt 0
 340 01d8 938585FF 		addi	a1,a1,-8
 341              	.LVL16:
  61:src/MemoryAllocator.cpp **** 
 342              		.loc 1 61 5 is_stmt 1
  61:src/MemoryAllocator.cpp **** 
 343              		.loc 1 61 12 is_stmt 0
 344 01dc 833687FF 		ld	a3,-8(a4)
 345              	.LVL17:
  63:src/MemoryAllocator.cpp ****     if (!head || realStart<(size_t *)head)
 346              		.loc 1 63 5 is_stmt 1
  64:src/MemoryAllocator.cpp ****         cur = 0;
 347              		.loc 1 64 5
  64:src/MemoryAllocator.cpp ****         cur = 0;
 348              		.loc 1 64 10 is_stmt 0
 349 01e0 83370500 		ld	a5,0(a0)
  64:src/MemoryAllocator.cpp ****         cur = 0;
 350              		.loc 1 64 5
 351 01e4 638E0700 		beqz	a5,.L33
  64:src/MemoryAllocator.cpp ****         cur = 0;
 352              		.loc 1 64 15 discriminator 1
 353 01e8 63E0F502 		bgtu	a5,a1,.L34
 354              	.LVL18:
 355              	.L27:
  67:src/MemoryAllocator.cpp ****     FreeMem* newSeg = (FreeMem*)realStart;
 356              		.loc 1 67 37 is_stmt 1 discriminator 4
 357 01ec 93840700 		mv	s1,a5
  67:src/MemoryAllocator.cpp ****     FreeMem* newSeg = (FreeMem*)realStart;
 358              		.loc 1 67 29 is_stmt 0 discriminator 4
 359 01f0 83B70700 		ld	a5,0(a5)
 360              	.LVL19:
  67:src/MemoryAllocator.cpp ****     FreeMem* newSeg = (FreeMem*)realStart;
 361              		.loc 1 67 37 discriminator 4
 362 01f4 638C0700 		beqz	a5,.L26
  67:src/MemoryAllocator.cpp ****     FreeMem* newSeg = (FreeMem*)realStart;
 363              		.loc 1 67 37 discriminator 2
 364 01f8 E3EAB7FE 		bltu	a5,a1,.L27
 365 01fc 6F000001 		j	.L26
 366              	.LVL20:
 367              	.L33:
  65:src/MemoryAllocator.cpp ****     else
 368              		.loc 1 65 13
GAS LISTING /tmp/cc4fXgpf.s 			page 10


 369 0200 93840700 		mv	s1,a5
 370 0204 6F008000 		j	.L26
 371              	.L34:
 372 0208 93040000 		li	s1,0
 373              	.LVL21:
 374              	.L26:
  68:src/MemoryAllocator.cpp ****     newSeg->sizeofblock = bytes;
 375              		.loc 1 68 5 is_stmt 1
  69:src/MemoryAllocator.cpp ****     newSeg->prev = cur;
 376              		.loc 1 69 5
  69:src/MemoryAllocator.cpp ****     newSeg->prev = cur;
 377              		.loc 1 69 25 is_stmt 0
 378 020c 2334D700 		sd	a3,8(a4)
  70:src/MemoryAllocator.cpp ****     if (cur) newSeg->next = cur->next;
 379              		.loc 1 70 5 is_stmt 1
  70:src/MemoryAllocator.cpp ****     if (cur) newSeg->next = cur->next;
 380              		.loc 1 70 18 is_stmt 0
 381 0210 23309700 		sd	s1,0(a4)
  71:src/MemoryAllocator.cpp ****     else newSeg->next = head;
 382              		.loc 1 71 5 is_stmt 1
 383 0214 638A0404 		beqz	s1,.L28
  71:src/MemoryAllocator.cpp ****     else newSeg->next = head;
 384              		.loc 1 71 14 discriminator 1
  71:src/MemoryAllocator.cpp ****     else newSeg->next = head;
 385              		.loc 1 71 34 is_stmt 0 discriminator 1
 386 0218 83B70400 		ld	a5,0(s1)
  71:src/MemoryAllocator.cpp ****     else newSeg->next = head;
 387              		.loc 1 71 27 discriminator 1
 388 021c 233CF7FE 		sd	a5,-8(a4)
 389              	.L29:
  73:src/MemoryAllocator.cpp ****     if (cur) cur->next = newSeg;
 390              		.loc 1 73 5 is_stmt 1
  73:src/MemoryAllocator.cpp ****     if (cur) cur->next = newSeg;
 391              		.loc 1 73 17 is_stmt 0
 392 0220 833787FF 		ld	a5,-8(a4)
  73:src/MemoryAllocator.cpp ****     if (cur) cur->next = newSeg;
 393              		.loc 1 73 5
 394 0224 63840700 		beqz	a5,.L30
  73:src/MemoryAllocator.cpp ****     if (cur) cur->next = newSeg;
 395              		.loc 1 73 23 is_stmt 1 discriminator 1
  73:src/MemoryAllocator.cpp ****     if (cur) cur->next = newSeg;
 396              		.loc 1 73 42 is_stmt 0 discriminator 1
 397 0228 23B4B700 		sd	a1,8(a5)
 398              	.L30:
  74:src/MemoryAllocator.cpp ****     else head = newSeg;
 399              		.loc 1 74 5 is_stmt 1
 400 022c 63840404 		beqz	s1,.L31
  74:src/MemoryAllocator.cpp ****     else head = newSeg;
 401              		.loc 1 74 14 discriminator 1
  74:src/MemoryAllocator.cpp ****     else head = newSeg;
 402              		.loc 1 74 24 is_stmt 0 discriminator 1
 403 0230 23B0B400 		sd	a1,0(s1)
 404              	.L32:
  76:src/MemoryAllocator.cpp ****     tryToJoin(cur);
 405              		.loc 1 76 5 is_stmt 1
  76:src/MemoryAllocator.cpp ****     tryToJoin(cur);
 406              		.loc 1 76 14 is_stmt 0
GAS LISTING /tmp/cc4fXgpf.s 			page 11


 407 0234 13050900 		mv	a0,s2
 408              	.LVL22:
 409 0238 97000000 		call	_ZN15MemoryAllocator9tryToJoinEPNS_7FreeMemE
 409      E7800000 
 410              	.LVL23:
  77:src/MemoryAllocator.cpp **** }
 411              		.loc 1 77 5 is_stmt 1
  77:src/MemoryAllocator.cpp **** }
 412              		.loc 1 77 14 is_stmt 0
 413 0240 93850400 		mv	a1,s1
 414 0244 13050900 		mv	a0,s2
 415 0248 97000000 		call	_ZN15MemoryAllocator9tryToJoinEPNS_7FreeMemE
 415      E7800000 
 416              	.LVL24:
  78:src/MemoryAllocator.cpp **** 
 417              		.loc 1 78 1
 418 0250 83308101 		ld	ra,24(sp)
 419              		.cfi_remember_state
 420              		.cfi_restore 1
 421 0254 03340101 		ld	s0,16(sp)
 422              		.cfi_restore 8
 423              		.cfi_def_cfa 2, 32
 424 0258 83348100 		ld	s1,8(sp)
 425              		.cfi_restore 9
 426              	.LVL25:
 427 025c 03390100 		ld	s2,0(sp)
 428              		.cfi_restore 18
 429              	.LVL26:
 430 0260 13010102 		addi	sp,sp,32
 431              		.cfi_def_cfa_offset 0
 432 0264 67800000 		jr	ra
 433              	.LVL27:
 434              	.L28:
 435              		.cfi_restore_state
  72:src/MemoryAllocator.cpp ****     if (newSeg->next) newSeg->next->prev = newSeg;
 436              		.loc 1 72 10 is_stmt 1
  72:src/MemoryAllocator.cpp ****     if (newSeg->next) newSeg->next->prev = newSeg;
 437              		.loc 1 72 25 is_stmt 0
 438 0268 83370900 		ld	a5,0(s2)
  72:src/MemoryAllocator.cpp ****     if (newSeg->next) newSeg->next->prev = newSeg;
 439              		.loc 1 72 23
 440 026c 233CF7FE 		sd	a5,-8(a4)
 441 0270 6FF01FFB 		j	.L29
 442              	.L31:
  75:src/MemoryAllocator.cpp ****     tryToJoin(newSeg);
 443              		.loc 1 75 10 is_stmt 1
  75:src/MemoryAllocator.cpp ****     tryToJoin(newSeg);
 444              		.loc 1 75 15 is_stmt 0
 445 0274 2330B900 		sd	a1,0(s2)
 446 0278 6FF0DFFB 		j	.L32
 447              		.cfi_endproc
 448              	.LFE5:
 450              		.bss
 451              		.align	3
 452              		.set	.LANCHOR0,. + 0
 455              	_ZGVZN15MemoryAllocator11getInstanceEvE8instance:
 456 0000 00000000 		.zero	8
GAS LISTING /tmp/cc4fXgpf.s 			page 12


 456      00000000 
 459              	_ZZN15MemoryAllocator11getInstanceEvE8instance:
 460 0008 00000000 		.zero	8
 460      00000000 
 461              		.text
 462              	.Letext0:
 463              		.file 2 "src/../h/../lib/hw.h"
 464              		.file 3 "src/../h/MemoryAllocator.hpp"
GAS LISTING /tmp/cc4fXgpf.s 			page 13

