GAS LISTING /tmp/ccS74tVe.s 			page 1


   1              		.file	"main.cpp"
   2              		.option pic
   3              		.option norelax
   4              		.text
   5              	.Ltext0:
   6              		.align	2
   7              		.globl	_Z7idlefunPv
   9              	_Z7idlefunPv:
  10              	.LFB41:
  11              		.file 1 "src/main.cpp"
   1:src/main.cpp  **** #include "../h/syscall_c.h"
   2:src/main.cpp  **** #include "../h/SchedulerABI.hpp"
   3:src/main.cpp  **** #include "../h/ThreadABI.hpp"
   4:src/main.cpp  **** #include "../h/BufferPrinting.hpp"
   5:src/main.cpp  **** extern "C" void supervisorTrap();
   6:src/main.cpp  **** 
   7:src/main.cpp  **** 
   8:src/main.cpp  **** void idlefun(void *) {
  12              		.loc 1 8 22
  13              		.cfi_startproc
  14              	.L6:
   9:src/main.cpp  ****     while (1){
  15              		.loc 1 9 5
  10:src/main.cpp  ****         if(SchedulerABI::headready)thread_dispatch();
  16              		.loc 1 10 9
  17              		.loc 1 10 35 is_stmt 0
  18 0000 97070000 		la	a5,_ZN12SchedulerABI9headreadyE
  18      83B70700 
  19 0008 83B70700 		ld	a5,0(a5)
  20              		.loc 1 10 9
  21 000c E38A07FE 		beqz	a5,.L6
   8:src/main.cpp  ****     while (1){
  22              		.loc 1 8 22
  23 0010 130101FF 		addi	sp,sp,-16
  24              		.cfi_def_cfa_offset 16
  25 0014 23341100 		sd	ra,8(sp)
  26 0018 23308100 		sd	s0,0(sp)
  27              		.cfi_offset 1, -8
  28              		.cfi_offset 8, -16
  29 001c 13040101 		addi	s0,sp,16
  30              		.cfi_def_cfa 8, 0
  31              	.L5:
  32              		.loc 1 10 36 is_stmt 1 discriminator 1
  33              		.loc 1 10 51 is_stmt 0 discriminator 1
  34 0020 97000000 		call	_Z15thread_dispatchv@plt
  34      E7800000 
  35              	.LVL0:
  36              	.L2:
   9:src/main.cpp  ****     while (1){
  37              		.loc 1 9 5 is_stmt 1
  38              		.loc 1 10 9
  39              		.loc 1 10 35 is_stmt 0
  40 0028 97070000 		la	a5,_ZN12SchedulerABI9headreadyE
  40      83B70700 
  41 0030 83B70700 		ld	a5,0(a5)
  42              		.loc 1 10 9
  43 0034 E39607FE 		bnez	a5,.L5
GAS LISTING /tmp/ccS74tVe.s 			page 2


  44 0038 6FF01FFF 		j	.L2
  45              		.cfi_endproc
  46              	.LFE41:
  48              		.align	2
  49              		.globl	_Z10putcthrfunPv
  51              	_Z10putcthrfunPv:
  52              	.LFB42:
  11:src/main.cpp  ****     }
  12:src/main.cpp  **** }
  13:src/main.cpp  **** 
  14:src/main.cpp  **** 
  15:src/main.cpp  **** 
  16:src/main.cpp  **** void putcthrfun(void *arg) {
  53              		.loc 1 16 28 is_stmt 1
  54              		.cfi_startproc
  55              	.LVL1:
  56 003c 130101FE 		addi	sp,sp,-32
  57              		.cfi_def_cfa_offset 32
  58 0040 233C1100 		sd	ra,24(sp)
  59 0044 23388100 		sd	s0,16(sp)
  60 0048 23349100 		sd	s1,8(sp)
  61 004c 23302101 		sd	s2,0(sp)
  62              		.cfi_offset 1, -8
  63              		.cfi_offset 8, -16
  64              		.cfi_offset 9, -24
  65              		.cfi_offset 18, -32
  66 0050 13040102 		addi	s0,sp,32
  67              		.cfi_def_cfa 8, 0
  17:src/main.cpp  ****     intopriv();
  68              		.loc 1 17 5
  69              		.loc 1 17 13 is_stmt 0
  70 0054 97000000 		call	_Z8intoprivv@plt
  70      E7800000 
  71              	.LVL2:
  18:src/main.cpp  ****     __asm__ volatile("csrc sstatus,0x02");
  72              		.loc 1 18 5 is_stmt 1
  73              		.loc 1 18 42 is_stmt 0
  74              	#APP
  75              	# 18 "src/main.cpp" 1
  19              	
  76              		csrc sstatus,0x02
  77              	# 0 "" 2
  78              	#NO_APP
  79 0060 6F00C000 		j	.L10
  80              	.LVL3:
  81              	.L8:
  82              	.LBB15:
  20:src/main.cpp  ****    // sem_t sempolling = (sem_t) arg;
  21:src/main.cpp  **** 
  22:src/main.cpp  ****     while (true) {
  23:src/main.cpp  ****         uint8 *tmp = (uint8 *) CONSOLE_STATUS;
  24:src/main.cpp  ****         while ((*tmp & CONSOLE_TX_STATUS_BIT) && BufferPrinting::tmpput!=0) {
  25:src/main.cpp  ****            // sem_wait(sempolling);
  26:src/main.cpp  ****             uint8 *adr = (uint8 *) CONSOLE_TX_DATA;
  27:src/main.cpp  ****             *adr = BufferPrinting::bin->get();
  28:src/main.cpp  ****             BufferPrinting::tmpput--;
  29:src/main.cpp  ****         }
GAS LISTING /tmp/ccS74tVe.s 			page 3


  30:src/main.cpp  ****         thread_dispatch();
  83              		.loc 1 30 9 is_stmt 1
  84              		.loc 1 30 24 is_stmt 0
  85 0064 97000000 		call	_Z15thread_dispatchv@plt
  85      E7800000 
  86              	.LVL4:
  87              	.LBE15:
  22:src/main.cpp  ****         uint8 *tmp = (uint8 *) CONSOLE_STATUS;
  88              		.loc 1 22 5 is_stmt 1
  89              	.L10:
  22:src/main.cpp  ****         uint8 *tmp = (uint8 *) CONSOLE_STATUS;
  90              		.loc 1 22 5
  91              	.LBB17:
  23:src/main.cpp  ****         while ((*tmp & CONSOLE_TX_STATUS_BIT) && BufferPrinting::tmpput!=0) {
  92              		.loc 1 23 9
  23:src/main.cpp  ****         while ((*tmp & CONSOLE_TX_STATUS_BIT) && BufferPrinting::tmpput!=0) {
  93              		.loc 1 23 16 is_stmt 0
  94 006c 97070000 		la	a5,CONSOLE_STATUS
  94      83B70700 
  95 0074 83B40700 		ld	s1,0(a5)
  96              	.LVL5:
  97              	.L9:
  24:src/main.cpp  ****            // sem_wait(sempolling);
  98              		.loc 1 24 9 is_stmt 1
  24:src/main.cpp  ****            // sem_wait(sempolling);
  99              		.loc 1 24 47
  24:src/main.cpp  ****            // sem_wait(sempolling);
 100              		.loc 1 24 17 is_stmt 0
 101 0078 83C70400 		lbu	a5,0(s1)
  24:src/main.cpp  ****            // sem_wait(sempolling);
 102              		.loc 1 24 47
 103 007c 93F70702 		andi	a5,a5,32
 104 0080 E38207FE 		beqz	a5,.L8
  24:src/main.cpp  ****            // sem_wait(sempolling);
 105              		.loc 1 24 72 discriminator 1
 106 0084 97070000 		la	a5,_ZN14BufferPrinting6tmpputE
 106      83B70700 
 107 008c 83A70700 		lw	a5,0(a5)
  24:src/main.cpp  ****            // sem_wait(sempolling);
 108              		.loc 1 24 47 discriminator 1
 109 0090 E38A07FC 		beqz	a5,.L8
 110              	.LBB16:
  26:src/main.cpp  ****             *adr = BufferPrinting::bin->get();
 111              		.loc 1 26 13 is_stmt 1
  26:src/main.cpp  ****             *adr = BufferPrinting::bin->get();
 112              		.loc 1 26 20 is_stmt 0
 113 0094 97070000 		la	a5,CONSOLE_TX_DATA
 113      83B70700 
 114 009c 03B90700 		ld	s2,0(a5)
 115              	.LVL6:
  27:src/main.cpp  ****             BufferPrinting::tmpput--;
 116              		.loc 1 27 13 is_stmt 1
  27:src/main.cpp  ****             BufferPrinting::tmpput--;
 117              		.loc 1 27 44 is_stmt 0
 118 00a0 97070000 		la	a5,_ZN14BufferPrinting3binE
 118      83B70700 
 119 00a8 03B50700 		ld	a0,0(a5)
GAS LISTING /tmp/ccS74tVe.s 			page 4


 120 00ac 97000000 		call	_ZN14BufferPrinting3getEv@plt
 120      E7800000 
 121              	.LVL7:
  27:src/main.cpp  ****             BufferPrinting::tmpput--;
 122              		.loc 1 27 18
 123 00b4 2300A900 		sb	a0,0(s2)
  28:src/main.cpp  ****         }
 124              		.loc 1 28 13 is_stmt 1
  28:src/main.cpp  ****         }
 125              		.loc 1 28 35 is_stmt 0
 126 00b8 17070000 		la	a4,_ZN14BufferPrinting6tmpputE
 126      03370700 
 127 00c0 83270700 		lw	a5,0(a4)
 128 00c4 9B87F7FF 		addiw	a5,a5,-1
 129 00c8 2320F700 		sw	a5,0(a4)
 130              	.LBE16:
  24:src/main.cpp  ****            // sem_wait(sempolling);
 131              		.loc 1 24 9
 132 00cc 6FF0DFFA 		j	.L9
 133              	.LBE17:
 134              		.cfi_endproc
 135              	.LFE42:
 137              		.align	2
 138              		.globl	_Z10getcthrfunPv
 140              	_Z10getcthrfunPv:
 141              	.LFB43:
  31:src/main.cpp  **** 
  32:src/main.cpp  ****     }
  33:src/main.cpp  **** }
  34:src/main.cpp  **** 
  35:src/main.cpp  **** void getcthrfun(void *arg) {
 142              		.loc 1 35 28 is_stmt 1
 143              		.cfi_startproc
 144              	.LVL8:
 145 00d0 130101FE 		addi	sp,sp,-32
 146              		.cfi_def_cfa_offset 32
 147 00d4 233C1100 		sd	ra,24(sp)
 148 00d8 23388100 		sd	s0,16(sp)
 149 00dc 23349100 		sd	s1,8(sp)
 150              		.cfi_offset 1, -8
 151              		.cfi_offset 8, -16
 152              		.cfi_offset 9, -24
 153 00e0 13040102 		addi	s0,sp,32
 154              		.cfi_def_cfa 8, 0
  36:src/main.cpp  ****     intopriv();
 155              		.loc 1 36 5
 156              		.loc 1 36 13 is_stmt 0
 157 00e4 97000000 		call	_Z8intoprivv@plt
 157      E7800000 
 158              	.LVL9:
  37:src/main.cpp  ****     __asm__ volatile("csrs sstatus,0x02");
 159              		.loc 1 37 5 is_stmt 1
 160              		.loc 1 37 42 is_stmt 0
 161              	#APP
 162              	# 37 "src/main.cpp" 1
  38              	
 163              		csrs sstatus,0x02
GAS LISTING /tmp/ccS74tVe.s 			page 5


 164              	# 0 "" 2
 165              	#NO_APP
 166 00f0 6F00C000 		j	.L15
 167              	.LVL10:
 168              	.L13:
 169              	.LBB18:
  39:src/main.cpp  ****    // sem_t sempolling = (sem_t) arg;
  40:src/main.cpp  **** 
  41:src/main.cpp  ****     while (true) {
  42:src/main.cpp  ****         uint8 *tmp = (uint8 *) CONSOLE_STATUS;
  43:src/main.cpp  ****         while (*tmp & CONSOLE_RX_STATUS_BIT) {
  44:src/main.cpp  ****           //  sem_wait(sempolling);
  45:src/main.cpp  ****             uint8 *adr = (uint8 *) CONSOLE_RX_DATA;
  46:src/main.cpp  ****             BufferPrinting::bout->put(*adr);
  47:src/main.cpp  ****             BufferPrinting::tmpget--;
  48:src/main.cpp  ****         }
  49:src/main.cpp  ****         thread_dispatch();
 170              		.loc 1 49 9 is_stmt 1
 171              		.loc 1 49 24 is_stmt 0
 172 00f4 97000000 		call	_Z15thread_dispatchv@plt
 172      E7800000 
 173              	.LVL11:
 174              	.LBE18:
  41:src/main.cpp  ****         uint8 *tmp = (uint8 *) CONSOLE_STATUS;
 175              		.loc 1 41 5 is_stmt 1
 176              	.L15:
  41:src/main.cpp  ****         uint8 *tmp = (uint8 *) CONSOLE_STATUS;
 177              		.loc 1 41 5
 178              	.LBB20:
  42:src/main.cpp  ****         while (*tmp & CONSOLE_RX_STATUS_BIT) {
 179              		.loc 1 42 9
  42:src/main.cpp  ****         while (*tmp & CONSOLE_RX_STATUS_BIT) {
 180              		.loc 1 42 16 is_stmt 0
 181 00fc 97070000 		la	a5,CONSOLE_STATUS
 181      83B70700 
 182 0104 83B40700 		ld	s1,0(a5)
 183              	.LVL12:
 184              	.L14:
  43:src/main.cpp  ****           //  sem_wait(sempolling);
 185              		.loc 1 43 9 is_stmt 1
  43:src/main.cpp  ****           //  sem_wait(sempolling);
 186              		.loc 1 43 23
  43:src/main.cpp  ****           //  sem_wait(sempolling);
 187              		.loc 1 43 16 is_stmt 0
 188 0108 83C70400 		lbu	a5,0(s1)
  43:src/main.cpp  ****           //  sem_wait(sempolling);
 189              		.loc 1 43 23
 190 010c 93F71700 		andi	a5,a5,1
 191 0110 E38207FE 		beqz	a5,.L13
 192              	.LBB19:
  45:src/main.cpp  ****             BufferPrinting::bout->put(*adr);
 193              		.loc 1 45 13 is_stmt 1
  45:src/main.cpp  ****             BufferPrinting::bout->put(*adr);
 194              		.loc 1 45 20 is_stmt 0
 195 0114 97070000 		la	a5,CONSOLE_RX_DATA
 195      83B70700 
 196 011c 83B70700 		ld	a5,0(a5)
GAS LISTING /tmp/ccS74tVe.s 			page 6


 197              	.LVL13:
  46:src/main.cpp  ****             BufferPrinting::tmpget--;
 198              		.loc 1 46 13 is_stmt 1
  46:src/main.cpp  ****             BufferPrinting::tmpget--;
 199              		.loc 1 46 38 is_stmt 0
 200 0120 83C50700 		lbu	a1,0(a5)
 201 0124 97070000 		la	a5,_ZN14BufferPrinting4boutE
 201      83B70700 
 202              	.LVL14:
 203 012c 03B50700 		ld	a0,0(a5)
 204 0130 97000000 		call	_ZN14BufferPrinting3putEc@plt
 204      E7800000 
 205              	.LVL15:
  47:src/main.cpp  ****         }
 206              		.loc 1 47 13 is_stmt 1
  47:src/main.cpp  ****         }
 207              		.loc 1 47 35 is_stmt 0
 208 0138 17070000 		la	a4,_ZN14BufferPrinting6tmpgetE
 208      03370700 
 209 0140 83270700 		lw	a5,0(a4)
 210 0144 9B87F7FF 		addiw	a5,a5,-1
 211 0148 2320F700 		sw	a5,0(a4)
 212              	.LBE19:
  43:src/main.cpp  ****           //  sem_wait(sempolling);
 213              		.loc 1 43 9
 214 014c 6FF0DFFB 		j	.L14
 215              	.LBE20:
 216              		.cfi_endproc
 217              	.LFE43:
 219              		.align	2
 220              		.globl	main
 222              	main:
 223              	.LFB44:
  50:src/main.cpp  ****     }
  51:src/main.cpp  **** }
  52:src/main.cpp  **** 
  53:src/main.cpp  **** int main() {
 224              		.loc 1 53 12 is_stmt 1
 225              		.cfi_startproc
 226              		.cfi_personality 0x9b,DW.ref.__gxx_personality_v0
 227              		.cfi_lsda 0x1b,.LLSDA44
 228 0150 130101FD 		addi	sp,sp,-48
 229              		.cfi_def_cfa_offset 48
 230 0154 23341102 		sd	ra,40(sp)
 231 0158 23308102 		sd	s0,32(sp)
 232 015c 233C9100 		sd	s1,24(sp)
 233 0160 23382101 		sd	s2,16(sp)
 234              		.cfi_offset 1, -8
 235              		.cfi_offset 8, -16
 236              		.cfi_offset 9, -24
 237              		.cfi_offset 18, -32
 238 0164 13040103 		addi	s0,sp,48
 239              		.cfi_def_cfa 8, 0
  54:src/main.cpp  ****     __asm__ volatile("csrw stvec, %0" : : "r" (&supervisorTrap));
 240              		.loc 1 54 5
 241              		.loc 1 54 65 is_stmt 0
 242 0168 97070000 		la	a5,supervisorTrap
GAS LISTING /tmp/ccS74tVe.s 			page 7


 242      83B70700 
 243              	#APP
 244              	# 54 "src/main.cpp" 1
  55              	    thread_t loopputc = nullptr;
 245              		csrw stvec, a5
 246              	# 0 "" 2
 247              		.loc 1 55 5 is_stmt 1
 248              		.loc 1 55 14 is_stmt 0
 249              	#NO_APP
 250 0174 233C04FC 		sd	zero,-40(s0)
  56:src/main.cpp  ****     thread_t loopgetc = nullptr;
 251              		.loc 1 56 5 is_stmt 1
 252              		.loc 1 56 14 is_stmt 0
 253 0178 233804FC 		sd	zero,-48(s0)
  57:src/main.cpp  **** 
  58:src/main.cpp  ****     ThreadABI::main = new ThreadABI;
 254              		.loc 1 58 5 is_stmt 1
 255              	.LVL16:
 256              	.LBB21:
 257              	.LBB22:
 258              		.file 2 "src/../h/ThreadABI.hpp"
   1:src/../h/ThreadABI.hpp **** ////
   2:src/../h/ThreadABI.hpp **** //// Created by os on 5/22/22.
   3:src/../h/ThreadABI.hpp **** ////
   4:src/../h/ThreadABI.hpp **** //
   5:src/../h/ThreadABI.hpp **** #ifndef thread_abi
   6:src/../h/ThreadABI.hpp **** #define thread_abi
   7:src/../h/ThreadABI.hpp **** #include "../lib/hw.h"
   8:src/../h/ThreadABI.hpp **** #include "definefile.hpp"
   9:src/../h/ThreadABI.hpp **** #include "SchedulerABI.hpp"
  10:src/../h/ThreadABI.hpp **** 
  11:src/../h/ThreadABI.hpp **** class ThreadABI{
  12:src/../h/ThreadABI.hpp **** public:
  13:src/../h/ThreadABI.hpp ****     MEM_ALLOC;
 259              		.loc 2 13 5
 260              		.loc 2 13 5
 261              		.loc 2 13 5
 262              		.loc 2 13 5
 263              		.loc 2 13 5
 264              		.loc 2 13 5
 265              		.loc 2 13 5
 266              	.LEHB0:
 267 017c 97000000 		call	_ZN15MemoryAllocator11getInstanceEv@plt
 267      E7800000 
 268              	.LVL17:
 269 0184 93050008 		li	a1,128
 270 0188 97000000 		call	_ZN15MemoryAllocator11MemoryAllocEm@plt
 270      E7800000 
 271              	.LVL18:
 272              	.LBE22:
 273              	.LBE21:
 274              	.LBB23:
 275              	.LBB24:
  14:src/../h/ThreadABI.hpp **** 
  15:src/../h/ThreadABI.hpp ****     static ThreadABI *idle;
  16:src/../h/ThreadABI.hpp ****     static  ThreadABI *main;
  17:src/../h/ThreadABI.hpp ****     ThreadABI()=default;
GAS LISTING /tmp/ccS74tVe.s 			page 8


 276              		.loc 2 17 5 is_stmt 0
 277 0190 23300500 		sd	zero,0(a0)
 278 0194 23040500 		sb	zero,8(a0)
 279 0198 23260500 		sw	zero,12(a0)
 280 019c 23380500 		sd	zero,16(a0)
 281 01a0 233C0500 		sd	zero,24(a0)
 282 01a4 23380502 		sd	zero,48(a0)
 283 01a8 233C0502 		sd	zero,56(a0)
 284 01ac 93072000 		li	a5,2
 285 01b0 2330F504 		sd	a5,64(a0)
 286              	.LVL19:
 287              	.LBE24:
 288              	.LBE23:
 289              		.loc 1 58 21
 290 01b4 97070000 		la	a5,_ZN9ThreadABI4mainE
 290      83B70700 
 291 01bc 23B0A700 		sd	a0,0(a5)
  59:src/main.cpp  ****     ThreadABI::running = ThreadABI::main;
 292              		.loc 1 59 5 is_stmt 1
 293              		.loc 1 59 24 is_stmt 0
 294 01c0 97070000 		la	a5,_ZN9ThreadABI7runningE
 294      83B70700 
 295 01c8 23B0A700 		sd	a0,0(a5)
  60:src/main.cpp  ****     thread_create(&ThreadABI::idle, idlefun, nullptr);
 296              		.loc 1 60 5 is_stmt 1
 297              		.loc 1 60 18 is_stmt 0
 298 01cc 13060000 		li	a2,0
 299 01d0 97050000 		lla	a1,_Z7idlefunPv
 299      93850500 
 300 01d8 17050000 		la	a0,_ZN9ThreadABI4idleE
 300      03350500 
 301 01e0 97000000 		call	_Z13thread_createPP9ThreadABIPFvPvES2_@plt
 301      E7800000 
 302              	.LVL20:
  61:src/main.cpp  ****     BufferPrinting::bin = new BufferPrinting(100);
 303              		.loc 1 61 5 is_stmt 1
 304              	.LBB25:
 305              	.LBB26:
 306              		.file 3 "src/../h/BufferPrinting.hpp"
   1:src/../h/BufferPrinting.hpp **** //
   2:src/../h/BufferPrinting.hpp **** // Created by os on 6/2/22.
   3:src/../h/BufferPrinting.hpp **** //
   4:src/../h/BufferPrinting.hpp **** 
   5:src/../h/BufferPrinting.hpp **** #ifndef INC_3_0_SLEEP_ASINHRONA_BUFFERPRINTING_HPP
   6:src/../h/BufferPrinting.hpp **** #define INC_3_0_SLEEP_ASINHRONA_BUFFERPRINTING_HPP
   7:src/../h/BufferPrinting.hpp **** #include "SemaphoreABI.hpp"
   8:src/../h/BufferPrinting.hpp **** #include "../h/definefile.hpp"
   9:src/../h/BufferPrinting.hpp **** typedef SemaphoreABI* sem_t;
  10:src/../h/BufferPrinting.hpp **** class BufferPrinting{
  11:src/../h/BufferPrinting.hpp ****     sem_t itemAvailable,spaceAvailable;
  12:src/../h/BufferPrinting.hpp ****     char* buffer;
  13:src/../h/BufferPrinting.hpp ****     int head,tail,cap;
  14:src/../h/BufferPrinting.hpp **** public:
  15:src/../h/BufferPrinting.hpp ****     static int tmpput,tmpget;
  16:src/../h/BufferPrinting.hpp ****     MEM_ALLOC;
 307              		.loc 3 16 5
 308              		.loc 3 16 5
GAS LISTING /tmp/ccS74tVe.s 			page 9


 309              		.loc 3 16 5
 310              		.loc 3 16 5
 311              		.loc 3 16 5
 312              		.loc 3 16 5
 313              		.loc 3 16 5
 314 01e8 97000000 		call	_ZN15MemoryAllocator11getInstanceEv@plt
 314      E7800000 
 315              	.LVL21:
 316 01f0 93050004 		li	a1,64
 317 01f4 97000000 		call	_ZN15MemoryAllocator11MemoryAllocEm@plt
 317      E7800000 
 318              	.LVL22:
 319              	.LEHE0:
 320 01fc 93040500 		mv	s1,a0
 321              	.LVL23:
 322              	.LBE26:
 323              	.LBE25:
 324              		.loc 1 61 49 is_stmt 0
 325 0200 93054006 		li	a1,100
 326              	.LEHB1:
 327 0204 97000000 		call	_ZN14BufferPrintingC1Ei@plt
 327      E7800000 
 328              	.LVL24:
 329              	.LEHE1:
 330              		.loc 1 61 25 discriminator 3
 331 020c 97070000 		la	a5,_ZN14BufferPrinting3binE
 331      83B70700 
 332 0214 23B09700 		sd	s1,0(a5)
  62:src/main.cpp  ****     BufferPrinting::bout = new BufferPrinting(100);
 333              		.loc 1 62 5 is_stmt 1 discriminator 3
 334              	.LVL25:
 335              	.LBB27:
 336              	.LBB28:
 337              		.loc 3 16 5 discriminator 3
 338              		.loc 3 16 5 discriminator 3
 339              		.loc 3 16 5 discriminator 3
 340              		.loc 3 16 5 discriminator 3
 341              		.loc 3 16 5 discriminator 3
 342              		.loc 3 16 5 discriminator 3
 343              		.loc 3 16 5 discriminator 3
 344              	.LEHB2:
 345 0218 97000000 		call	_ZN15MemoryAllocator11getInstanceEv@plt
 345      E7800000 
 346              	.LVL26:
 347 0220 93050004 		li	a1,64
 348 0224 97000000 		call	_ZN15MemoryAllocator11MemoryAllocEm@plt
 348      E7800000 
 349              	.LVL27:
 350              	.LEHE2:
 351 022c 93040500 		mv	s1,a0
 352              	.LVL28:
 353              	.LBE28:
 354              	.LBE27:
 355              		.loc 1 62 50 is_stmt 0 discriminator 3
 356 0230 93054006 		li	a1,100
 357              	.LEHB3:
 358 0234 97000000 		call	_ZN14BufferPrintingC1Ei@plt
GAS LISTING /tmp/ccS74tVe.s 			page 10


 358      E7800000 
 359              	.LVL29:
 360              	.LEHE3:
 361              		.loc 1 62 26 discriminator 3
 362 023c 97070000 		la	a5,_ZN14BufferPrinting4boutE
 362      83B70700 
 363 0244 23B09700 		sd	s1,0(a5)
  63:src/main.cpp  ****     sem_open(&BufferPrinting::in, 0);
 364              		.loc 1 63 5 is_stmt 1 discriminator 3
 365              		.loc 1 63 13 is_stmt 0 discriminator 3
 366 0248 93050000 		li	a1,0
 367 024c 17050000 		la	a0,_ZN14BufferPrinting2inE
 367      03350500 
 368              	.LEHB4:
 369 0254 97000000 		call	_Z8sem_openPP12SemaphoreABIj@plt
 369      E7800000 
 370              	.LVL30:
  64:src/main.cpp  ****     sem_open(&BufferPrinting::out, 0);
 371              		.loc 1 64 5 is_stmt 1 discriminator 3
 372              		.loc 1 64 13 is_stmt 0 discriminator 3
 373 025c 93050000 		li	a1,0
 374 0260 17050000 		la	a0,_ZN14BufferPrinting3outE
 374      03350500 
 375 0268 97000000 		call	_Z8sem_openPP12SemaphoreABIj@plt
 375      E7800000 
 376              	.LVL31:
  65:src/main.cpp  ****     thread_create(&loopputc, putcthrfun, BufferPrinting::in);
 377              		.loc 1 65 5 is_stmt 1 discriminator 3
 378              		.loc 1 65 18 is_stmt 0 discriminator 3
 379 0270 97070000 		la	a5,_ZN14BufferPrinting2inE
 379      83B70700 
 380 0278 03B60700 		ld	a2,0(a5)
 381 027c 97050000 		lla	a1,_Z10putcthrfunPv
 381      93850500 
 382 0284 130584FD 		addi	a0,s0,-40
 383 0288 97000000 		call	_Z13thread_createPP9ThreadABIPFvPvES2_@plt
 383      E7800000 
 384              	.LVL32:
  66:src/main.cpp  ****     thread_create(&loopgetc, getcthrfun, BufferPrinting::out);
 385              		.loc 1 66 5 is_stmt 1 discriminator 3
 386              		.loc 1 66 18 is_stmt 0 discriminator 3
 387 0290 97070000 		la	a5,_ZN14BufferPrinting3outE
 387      83B70700 
 388 0298 03B60700 		ld	a2,0(a5)
 389 029c 97050000 		lla	a1,_Z10getcthrfunPv
 389      93850500 
 390 02a4 130504FD 		addi	a0,s0,-48
 391 02a8 97000000 		call	_Z13thread_createPP9ThreadABIPFvPvES2_@plt
 391      E7800000 
 392              	.LVL33:
  67:src/main.cpp  **** 
  68:src/main.cpp  ****     __asm__ volatile("csrs sstatus,0x02");
 393              		.loc 1 68 5 is_stmt 1 discriminator 3
 394              		.loc 1 68 42 is_stmt 0 discriminator 3
 395              	#APP
 396              	# 68 "src/main.cpp" 1
  69              	    intouser();
GAS LISTING /tmp/ccS74tVe.s 			page 11


 397              		csrs sstatus,0x02
 398              	# 0 "" 2
 399              		.loc 1 69 5 is_stmt 1 discriminator 3
 400              		.loc 1 69 13 is_stmt 0 discriminator 3
 401              	#NO_APP
 402 02b4 97000000 		call	_Z8intouserv@plt
 402      E7800000 
 403              	.LVL34:
  70:src/main.cpp  **** 
  71:src/main.cpp  **** 
  72:src/main.cpp  ****     //usermainhere
  73:src/main.cpp  ****     putc('G');
 404              		.loc 1 73 5 is_stmt 1 discriminator 3
 405              		.loc 1 73 9 is_stmt 0 discriminator 3
 406 02bc 13057004 		li	a0,71
 407 02c0 97000000 		call	_Z4putcc@plt
 407      E7800000 
 408              	.LVL35:
  74:src/main.cpp  ****     putc('O');
 409              		.loc 1 74 5 is_stmt 1 discriminator 3
 410              		.loc 1 74 9 is_stmt 0 discriminator 3
 411 02c8 1305F004 		li	a0,79
 412 02cc 97000000 		call	_Z4putcc@plt
 412      E7800000 
 413              	.LVL36:
  75:src/main.cpp  ****     putc('T');
 414              		.loc 1 75 5 is_stmt 1 discriminator 3
 415              		.loc 1 75 9 is_stmt 0 discriminator 3
 416 02d4 13054005 		li	a0,84
 417 02d8 97000000 		call	_Z4putcc@plt
 417      E7800000 
 418              	.LVL37:
  76:src/main.cpp  ****     putc('O');
 419              		.loc 1 76 5 is_stmt 1 discriminator 3
 420              		.loc 1 76 9 is_stmt 0 discriminator 3
 421 02e0 1305F004 		li	a0,79
 422 02e4 97000000 		call	_Z4putcc@plt
 422      E7800000 
 423              	.LVL38:
  77:src/main.cpp  ****     putc('V');
 424              		.loc 1 77 5 is_stmt 1 discriminator 3
 425              		.loc 1 77 9 is_stmt 0 discriminator 3
 426 02ec 13056005 		li	a0,86
 427 02f0 97000000 		call	_Z4putcc@plt
 427      E7800000 
 428              	.LVL39:
  78:src/main.cpp  ****     putc('O');
 429              		.loc 1 78 5 is_stmt 1 discriminator 3
 430              		.loc 1 78 9 is_stmt 0 discriminator 3
 431 02f8 1305F004 		li	a0,79
 432 02fc 97000000 		call	_Z4putcc@plt
 432      E7800000 
 433              	.LVL40:
  79:src/main.cpp  ****     putc(':');
 434              		.loc 1 79 5 is_stmt 1 discriminator 3
 435              		.loc 1 79 9 is_stmt 0 discriminator 3
 436 0304 1305A003 		li	a0,58
GAS LISTING /tmp/ccS74tVe.s 			page 12


 437 0308 97000000 		call	_Z4putcc@plt
 437      E7800000 
 438              	.LVL41:
  80:src/main.cpp  ****     putc('D');
 439              		.loc 1 80 5 is_stmt 1 discriminator 3
 440              		.loc 1 80 9 is_stmt 0 discriminator 3
 441 0310 13054004 		li	a0,68
 442 0314 97000000 		call	_Z4putcc@plt
 442      E7800000 
 443              	.LVL42:
  81:src/main.cpp  ****     putc('\n');
 444              		.loc 1 81 5 is_stmt 1 discriminator 3
 445              		.loc 1 81 9 is_stmt 0 discriminator 3
 446 031c 1305A000 		li	a0,10
 447 0320 97000000 		call	_Z4putcc@plt
 447      E7800000 
 448              	.LVL43:
 449 0328 6F00C000 		j	.L20
 450              	.L18:
  82:src/main.cpp  **** 
  83:src/main.cpp  ****     while (BufferPrinting::tmpput>0 || BufferPrinting::tmpget>0) thread_dispatch();
 451              		.loc 1 83 66 is_stmt 1 discriminator 3
 452              		.loc 1 83 81 is_stmt 0 discriminator 3
 453 032c 97000000 		call	_Z15thread_dispatchv@plt
 453      E7800000 
 454              	.LVL44:
 455              	.LEHE4:
 456              	.L20:
 457              		.loc 1 83 5 is_stmt 1
 458              		.loc 1 83 37
 459              		.loc 1 83 34 is_stmt 0
 460 0334 97070000 		la	a5,_ZN14BufferPrinting6tmpputE
 460      83B70700 
 461 033c 83A70700 		lw	a5,0(a5)
 462              		.loc 1 83 37
 463 0340 E346F0FE 		bgtz	a5,.L18
 464              		.loc 1 83 62 discriminator 1
 465 0344 97070000 		la	a5,_ZN14BufferPrinting6tmpgetE
 465      83B70700 
 466 034c 83A70700 		lw	a5,0(a5)
 467              		.loc 1 83 37 discriminator 1
 468 0350 E34EF0FC 		bgtz	a5,.L18
  84:src/main.cpp  **** 
  85:src/main.cpp  **** 
  86:src/main.cpp  ****     return 0;
  87:src/main.cpp  **** }...
 469              		.loc 1 87 1
 470 0354 13050000 		li	a0,0
 471 0358 83308102 		ld	ra,40(sp)
 472              		.cfi_remember_state
 473              		.cfi_restore 1
 474 035c 03340102 		ld	s0,32(sp)
 475              		.cfi_restore 8
 476              		.cfi_def_cfa 2, 48
 477 0360 83348101 		ld	s1,24(sp)
 478              		.cfi_restore 9
 479 0364 03390101 		ld	s2,16(sp)
GAS LISTING /tmp/ccS74tVe.s 			page 13


 480              		.cfi_restore 18
 481 0368 13010103 		addi	sp,sp,48
 482              		.cfi_def_cfa_offset 0
 483 036c 67800000 		jr	ra
 484              	.L23:
 485              		.cfi_restore_state
 486 0370 13090500 		mv	s2,a0
 487              	.LVL45:
 488              	.LBB29:
 489              	.LBB30:
 490              		.loc 3 16 5 is_stmt 1
 491 0374 97000000 		call	_ZN15MemoryAllocator11getInstanceEv@plt
 491      E7800000 
 492              	.LVL46:
 493 037c 93850400 		mv	a1,s1
 494 0380 97000000 		call	_ZN15MemoryAllocator10MemoryFreeEPv@plt
 494      E7800000 
 495              	.LVL47:
 496 0388 13050900 		mv	a0,s2
 497              	.LEHB5:
 498 038c 97000000 		call	_Unwind_Resume@plt
 498      E7800000 
 499              	.LVL48:
 500              	.LEHE5:
 501              	.L24:
 502 0394 13090500 		mv	s2,a0
 503              	.LVL49:
 504              	.LBE30:
 505              	.LBE29:
 506              	.LBB31:
 507              	.LBB32:
 508              		.loc 3 16 5
 509 0398 97000000 		call	_ZN15MemoryAllocator11getInstanceEv@plt
 509      E7800000 
 510              	.LVL50:
 511 03a0 93850400 		mv	a1,s1
 512 03a4 97000000 		call	_ZN15MemoryAllocator10MemoryFreeEPv@plt
 512      E7800000 
 513              	.LVL51:
 514 03ac 13050900 		mv	a0,s2
 515              	.LEHB6:
 516 03b0 97000000 		call	_Unwind_Resume@plt
 516      E7800000 
 517              	.LVL52:
 518              	.LEHE6:
 519              	.LBE32:
 520              	.LBE31:
 521              		.cfi_endproc
 522              	.LFE44:
 523              		.globl	__gxx_personality_v0
 524              		.section	.gcc_except_table,"a",@progbits
 525              	.LLSDA44:
 526 0000 FF       		.byte	0xff
 527 0001 FF       		.byte	0xff
 528 0002 03       		.byte	0x3
 529 0003 5B       		.byte	0x5b
 530 0004 00000000 		.4byte	.LEHB0-.LFB44
GAS LISTING /tmp/ccS74tVe.s 			page 14


 531 0008 00000000 		.4byte	.LEHE0-.LEHB0
 532 000c 00000000 		.4byte	0
 533 0010 00       		.byte	0
 534 0011 00000000 		.4byte	.LEHB1-.LFB44
 535 0015 00000000 		.4byte	.LEHE1-.LEHB1
 536 0019 00000000 		.4byte	.L23-.LFB44
 537 001d 00       		.byte	0
 538 001e 00000000 		.4byte	.LEHB2-.LFB44
 539 0022 00000000 		.4byte	.LEHE2-.LEHB2
 540 0026 00000000 		.4byte	0
 541 002a 00       		.byte	0
 542 002b 00000000 		.4byte	.LEHB3-.LFB44
 543 002f 00000000 		.4byte	.LEHE3-.LEHB3
 544 0033 00000000 		.4byte	.L24-.LFB44
 545 0037 00       		.byte	0
 546 0038 00000000 		.4byte	.LEHB4-.LFB44
 547 003c 00000000 		.4byte	.LEHE4-.LEHB4
 548 0040 00000000 		.4byte	0
 549 0044 00       		.byte	0
 550 0045 00000000 		.4byte	.LEHB5-.LFB44
 551 0049 00000000 		.4byte	.LEHE5-.LEHB5
 552 004d 00000000 		.4byte	0
 553 0051 00       		.byte	0
 554 0052 00000000 		.4byte	.LEHB6-.LFB44
 555 0056 00000000 		.4byte	.LEHE6-.LEHB6
 556 005a 00000000 		.4byte	0
 557 005e 00       		.byte	0
 558              		.text
 560              	.Letext0:
 561              		.file 4 "src/../h/../lib/hw.h"
 562              		.file 5 "src/../h/syscall_c.h"
 563              		.file 6 "src/../h/SemaphoreABI.hpp"
 564              		.file 7 "src/../h/MemoryAllocator.hpp"
 4259              		.align	3
 4262              	DW.ref.__gxx_personality_v0:
 4263 0000 00000000 		.dword	__gxx_personality_v0
 4263      00000000 
 4264              		.ident	"GCC: (Ubuntu 9.4.0-1ubuntu1~20.04) 9.4.0"
 4265              		.section	.note.GNU-stack,"",@progbits
GAS LISTING /tmp/ccS74tVe.s 			page 15

