GAS LISTING /tmp/ccUCloaK.s 			page 1


   1              		.file	"SchedulerABI.cpp"
   2              		.option pic
   3              		.option norelax
   4              		.text
   5              	.Ltext0:
   6              		.align	2
   7              		.globl	_ZN12SchedulerABI3getEv
   9              	_ZN12SchedulerABI3getEv:
  10              	.LFB13:
  11              		.file 1 "src/SchedulerABI.cpp"
   1:src/SchedulerABI.cpp **** //
   2:src/SchedulerABI.cpp **** // Created by os on 5/22/22.
   3:src/SchedulerABI.cpp **** //
   4:src/SchedulerABI.cpp **** #include "../h/SchedulerABI.hpp"
   5:src/SchedulerABI.cpp **** #include "../h/ThreadABI.hpp"
   6:src/SchedulerABI.cpp **** 
   7:src/SchedulerABI.cpp **** ThreadABI *SchedulerABI::headsleep = nullptr;
   8:src/SchedulerABI.cpp **** ThreadABI *SchedulerABI::headready = nullptr;
   9:src/SchedulerABI.cpp **** ThreadABI *SchedulerABI::tailready = nullptr;
  10:src/SchedulerABI.cpp **** 
  11:src/SchedulerABI.cpp **** ThreadABI *SchedulerABI::get() {
  12              		.loc 1 11 32
  13              		.cfi_startproc
  14              	.LVL0:
  15 0000 130101FF 		addi	sp,sp,-16
  16              		.cfi_def_cfa_offset 16
  17 0004 23348100 		sd	s0,8(sp)
  18              		.cfi_offset 8, -8
  19 0008 13040101 		addi	s0,sp,16
  20              		.cfi_def_cfa 8, 0
  12:src/SchedulerABI.cpp **** 
  13:src/SchedulerABI.cpp ****     if (headready == nullptr)return ThreadABI::idle;
  21              		.loc 1 13 5
  22              		.loc 1 13 19 is_stmt 0
  23 000c 17050000 		ld	a0,.LANCHOR0
  23      03350500 
  24              	.LVL1:
  25              		.loc 1 13 5
  26 0014 63060502 		beqz	a0,.L6
  14:src/SchedulerABI.cpp ****     if (tailready == headready) {
  27              		.loc 1 14 5 is_stmt 1
  28              	.LBB2:
  29              		.loc 1 14 19 is_stmt 0
  30 0018 97070000 		ld	a5,.LANCHOR0+8
  30      83B70700 
  31              		.loc 1 14 5
  32 0020 6308F502 		beq	a0,a5,.L7
  33              	.LBE2:
  15:src/SchedulerABI.cpp ****         ThreadABI *tmp = headready;
  16:src/SchedulerABI.cpp ****         tailready = nullptr;
  17:src/SchedulerABI.cpp ****         headready = nullptr;
  18:src/SchedulerABI.cpp ****         return tmp;
  19:src/SchedulerABI.cpp ****     }
  20:src/SchedulerABI.cpp ****     ThreadABI *tmp = headready;
  34              		.loc 1 20 5 is_stmt 1
  35              	.LVL2:
  21:src/SchedulerABI.cpp ****     headready = headready->next;
GAS LISTING /tmp/ccUCloaK.s 			page 2


  36              		.loc 1 21 5
  37              		.loc 1 21 28 is_stmt 0
  38 0024 83370500 		ld	a5,0(a0)
  39              		.loc 1 21 15
  40 0028 17070000 		sd	a5,.LANCHOR0,a4
  40      2330F700 
  22:src/SchedulerABI.cpp **** //    ThreadABI::running=tmp;
  23:src/SchedulerABI.cpp ****     tmp->next= nullptr;
  41              		.loc 1 23 5 is_stmt 1
  42              		.loc 1 23 14 is_stmt 0
  43 0030 23300500 		sd	zero,0(a0)
  24:src/SchedulerABI.cpp **** 
  25:src/SchedulerABI.cpp ****     return tmp;
  44              		.loc 1 25 5 is_stmt 1
  45              	.LVL3:
  46              	.L1:
  26:src/SchedulerABI.cpp **** }
  47              		.loc 1 26 1 is_stmt 0
  48 0034 03348100 		ld	s0,8(sp)
  49              		.cfi_remember_state
  50              		.cfi_restore 8
  51              		.cfi_def_cfa 2, 16
  52 0038 13010101 		addi	sp,sp,16
  53              		.cfi_def_cfa_offset 0
  54 003c 67800000 		jr	ra
  55              	.L6:
  56              		.cfi_restore_state
  13:src/SchedulerABI.cpp ****     if (tailready == headready) {
  57              		.loc 1 13 30 is_stmt 1 discriminator 1
  13:src/SchedulerABI.cpp ****     if (tailready == headready) {
  58              		.loc 1 13 48 is_stmt 0 discriminator 1
  59 0040 97070000 		la	a5,_ZN9ThreadABI4idleE
  59      83B70700 
  60 0048 03B50700 		ld	a0,0(a5)
  61 004c 6FF09FFE 		j	.L1
  62              	.L7:
  63              	.LBB4:
  64              	.LBB3:
  15:src/SchedulerABI.cpp ****         tailready = nullptr;
  65              		.loc 1 15 9 is_stmt 1
  66              	.LVL4:
  16:src/SchedulerABI.cpp ****         headready = nullptr;
  67              		.loc 1 16 9
  16:src/SchedulerABI.cpp ****         headready = nullptr;
  68              		.loc 1 16 19 is_stmt 0
  69 0050 97070000 		lla	a5,.LANCHOR0
  69      93870700 
  70 0058 23B40700 		sd	zero,8(a5)
  17:src/SchedulerABI.cpp ****         return tmp;
  71              		.loc 1 17 9 is_stmt 1
  17:src/SchedulerABI.cpp ****         return tmp;
  72              		.loc 1 17 19 is_stmt 0
  73 005c 23B00700 		sd	zero,0(a5)
  18:src/SchedulerABI.cpp ****     }
  74              		.loc 1 18 9 is_stmt 1
  18:src/SchedulerABI.cpp ****     }
  75              		.loc 1 18 16 is_stmt 0
GAS LISTING /tmp/ccUCloaK.s 			page 3


  76 0060 6FF05FFD 		j	.L1
  77              	.LBE3:
  78              	.LBE4:
  79              		.cfi_endproc
  80              	.LFE13:
  82              		.align	2
  83              		.globl	_ZN12SchedulerABI3putEP9ThreadABI
  85              	_ZN12SchedulerABI3putEP9ThreadABI:
  86              	.LFB14:
  27:src/SchedulerABI.cpp **** 
  28:src/SchedulerABI.cpp **** void SchedulerABI::put(ThreadABI *t) {
  87              		.loc 1 28 38 is_stmt 1
  88              		.cfi_startproc
  89              	.LVL5:
  90 0064 130101FF 		addi	sp,sp,-16
  91              		.cfi_def_cfa_offset 16
  92 0068 23348100 		sd	s0,8(sp)
  93              		.cfi_offset 8, -8
  94 006c 13040101 		addi	s0,sp,16
  95              		.cfi_def_cfa 8, 0
  29:src/SchedulerABI.cpp ****     t->state=ThreadABI::READY;
  96              		.loc 1 29 5
  97              		.loc 1 29 13 is_stmt 0
  98 0070 93071000 		li	a5,1
  99 0074 23A6F500 		sw	a5,12(a1)
  30:src/SchedulerABI.cpp ****     if(t==ThreadABI::idle)return;
 100              		.loc 1 30 5 is_stmt 1
 101              		.loc 1 30 9 is_stmt 0
 102 0078 97070000 		la	a5,_ZN9ThreadABI4idleE
 102      83B70700 
 103 0080 83B70700 		ld	a5,0(a5)
 104              		.loc 1 30 5
 105 0084 638AB702 		beq	a5,a1,.L8
  31:src/SchedulerABI.cpp ****     if (t == nullptr)return;
 106              		.loc 1 31 5 is_stmt 1
 107 0088 63880502 		beqz	a1,.L8
  32:src/SchedulerABI.cpp ****     if (headready == nullptr) {
 108              		.loc 1 32 5
 109              		.loc 1 32 19 is_stmt 0
 110 008c 97070000 		ld	a5,.LANCHOR0
 110      83B70700 
 111              		.loc 1 32 5
 112 0094 63880702 		beqz	a5,.L12
  33:src/SchedulerABI.cpp ****         headready = t;
  34:src/SchedulerABI.cpp ****         tailready = t;
  35:src/SchedulerABI.cpp ****         t->next= nullptr;
  36:src/SchedulerABI.cpp ****         return;
  37:src/SchedulerABI.cpp ****     }
  38:src/SchedulerABI.cpp **** 
  39:src/SchedulerABI.cpp ****     tailready->next=t;
 113              		.loc 1 39 5 is_stmt 1
 114              		.loc 1 39 16 is_stmt 0
 115 0098 97070000 		lla	a5,.LANCHOR0
 115      93870700 
 116 00a0 03B78700 		ld	a4,8(a5)
 117              		.loc 1 39 20
 118 00a4 2330B700 		sd	a1,0(a4)
GAS LISTING /tmp/ccUCloaK.s 			page 4


  40:src/SchedulerABI.cpp ****     tailready=tailready->next;
 119              		.loc 1 40 5 is_stmt 1
 120              		.loc 1 40 26 is_stmt 0
 121 00a8 03B78700 		ld	a4,8(a5)
 122 00ac 03370700 		ld	a4,0(a4)
 123              		.loc 1 40 14
 124 00b0 23B4E700 		sd	a4,8(a5)
  41:src/SchedulerABI.cpp ****     tailready->next= nullptr;
 125              		.loc 1 41 5 is_stmt 1
 126              		.loc 1 41 20 is_stmt 0
 127 00b4 23300700 		sd	zero,0(a4)
 128              	.L8:
  42:src/SchedulerABI.cpp **** 
  43:src/SchedulerABI.cpp **** }
 129              		.loc 1 43 1
 130 00b8 03348100 		ld	s0,8(sp)
 131              		.cfi_remember_state
 132              		.cfi_restore 8
 133              		.cfi_def_cfa 2, 16
 134 00bc 13010101 		addi	sp,sp,16
 135              		.cfi_def_cfa_offset 0
 136 00c0 67800000 		jr	ra
 137              	.L12:
 138              		.cfi_restore_state
  33:src/SchedulerABI.cpp ****         tailready = t;
 139              		.loc 1 33 9 is_stmt 1
  33:src/SchedulerABI.cpp ****         tailready = t;
 140              		.loc 1 33 19 is_stmt 0
 141 00c4 97070000 		lla	a5,.LANCHOR0
 141      93870700 
 142 00cc 23B0B700 		sd	a1,0(a5)
  34:src/SchedulerABI.cpp ****         t->next= nullptr;
 143              		.loc 1 34 9 is_stmt 1
  34:src/SchedulerABI.cpp ****         t->next= nullptr;
 144              		.loc 1 34 19 is_stmt 0
 145 00d0 23B4B700 		sd	a1,8(a5)
  35:src/SchedulerABI.cpp ****         return;
 146              		.loc 1 35 9 is_stmt 1
  35:src/SchedulerABI.cpp ****         return;
 147              		.loc 1 35 16 is_stmt 0
 148 00d4 23B00500 		sd	zero,0(a1)
  36:src/SchedulerABI.cpp ****     }
 149              		.loc 1 36 9 is_stmt 1
 150 00d8 6FF01FFE 		j	.L8
 151              		.cfi_endproc
 152              	.LFE14:
 154              		.align	2
 155              		.globl	_ZN12SchedulerABI5sleepEm
 157              	_ZN12SchedulerABI5sleepEm:
 158              	.LFB15:
  44:src/SchedulerABI.cpp **** 
  45:src/SchedulerABI.cpp **** void SchedulerABI::sleep(time_t time) {
 159              		.loc 1 45 39
 160              		.cfi_startproc
 161              	.LVL6:
 162 00dc 130101FF 		addi	sp,sp,-16
 163              		.cfi_def_cfa_offset 16
GAS LISTING /tmp/ccUCloaK.s 			page 5


 164 00e0 23341100 		sd	ra,8(sp)
 165 00e4 23308100 		sd	s0,0(sp)
 166              		.cfi_offset 1, -8
 167              		.cfi_offset 8, -16
 168 00e8 13040101 		addi	s0,sp,16
 169              		.cfi_def_cfa 8, 0
  46:src/SchedulerABI.cpp **** 
  47:src/SchedulerABI.cpp ****     ThreadABI *tmp2=ThreadABI::running;
 170              		.loc 1 47 5
 171              		.loc 1 47 16 is_stmt 0
 172 00ec 97070000 		la	a5,_ZN9ThreadABI7runningE
 172      83B70700 
 173 00f4 83B60700 		ld	a3,0(a5)
 174              	.LVL7:
  48:src/SchedulerABI.cpp ****     tmp2->state=ThreadABI::State::SLEEP;
 175              		.loc 1 48 5 is_stmt 1
 176              		.loc 1 48 16 is_stmt 0
 177 00f8 93072000 		li	a5,2
 178 00fc 23A6F600 		sw	a5,12(a3)
  49:src/SchedulerABI.cpp ****     tmp2->sleeptime=time;
 179              		.loc 1 49 5 is_stmt 1
 180              		.loc 1 49 20 is_stmt 0
 181 0100 23BCA602 		sd	a0,56(a3)
  50:src/SchedulerABI.cpp **** 
  51:src/SchedulerABI.cpp ****     //prevezivanje linked liste spavajucih threadova
  52:src/SchedulerABI.cpp **** //    if(tmp== nullptr){
  53:src/SchedulerABI.cpp **** //        headsleep=tmp2;
  54:src/SchedulerABI.cpp **** //    }
  55:src/SchedulerABI.cpp **** //    else
  56:src/SchedulerABI.cpp **** //    while (tmp) {
  57:src/SchedulerABI.cpp **** //        if(tmp->sleeptime<tmp2->sleeptime){
  58:src/SchedulerABI.cpp **** //            onebehind=tmp;
  59:src/SchedulerABI.cpp **** //            tmp=tmp->next;
  60:src/SchedulerABI.cpp **** //        }
  61:src/SchedulerABI.cpp **** //        else{
  62:src/SchedulerABI.cpp **** //            if(tmp==headsleep){
  63:src/SchedulerABI.cpp **** //                tmp2->next=tmp;
  64:src/SchedulerABI.cpp **** //                headsleep=tmp2;
  65:src/SchedulerABI.cpp **** //                break;
  66:src/SchedulerABI.cpp **** //            }
  67:src/SchedulerABI.cpp **** //            if(tmp->next== nullptr){
  68:src/SchedulerABI.cpp **** //
  69:src/SchedulerABI.cpp **** //            }
  70:src/SchedulerABI.cpp **** //            tmp2->next=tmp;
  71:src/SchedulerABI.cpp **** //            onebehind->next=tmp2;
  72:src/SchedulerABI.cpp **** //            break;
  73:src/SchedulerABI.cpp **** //        }
  74:src/SchedulerABI.cpp **** //    }
  75:src/SchedulerABI.cpp ****     if (headsleep == nullptr || headsleep->sleeptime > tmp2->sleeptime) {
 182              		.loc 1 75 5 is_stmt 1
 183              	.LBB5:
 184              		.loc 1 75 19 is_stmt 0
 185 0104 97070000 		ld	a5,.LANCHOR0+16
 185      83B70700 
 186              		.loc 1 75 5
 187 010c 63860700 		beqz	a5,.L14
 188              		.loc 1 75 44 discriminator 1
GAS LISTING /tmp/ccUCloaK.s 			page 6


 189 0110 03B78703 		ld	a4,56(a5)
 190              		.loc 1 75 30 discriminator 1
 191 0114 6374E502 		bleu	a4,a0,.L15
 192              	.L14:
  76:src/SchedulerABI.cpp ****         tmp2->next = headsleep;
 193              		.loc 1 76 9 is_stmt 1
 194              		.loc 1 76 20 is_stmt 0
 195 0118 23B0F600 		sd	a5,0(a3)
  77:src/SchedulerABI.cpp ****         headsleep = tmp2;
 196              		.loc 1 77 9 is_stmt 1
 197              		.loc 1 77 19 is_stmt 0
 198 011c 97070000 		sd	a3,.LANCHOR0+16,a5
 198      23B0D700 
 199              	.L16:
 200              	.LBE5:
  78:src/SchedulerABI.cpp ****     }
  79:src/SchedulerABI.cpp ****     else {
  80:src/SchedulerABI.cpp ****         ThreadABI *tmp = headsleep;
  81:src/SchedulerABI.cpp **** 
  82:src/SchedulerABI.cpp ****         while (tmp->next != nullptr && tmp->next->sleeptime < tmp2->sleeptime) {
  83:src/SchedulerABI.cpp ****             tmp = tmp->next;
  84:src/SchedulerABI.cpp ****         }
  85:src/SchedulerABI.cpp ****         tmp2->next = tmp->next;
  86:src/SchedulerABI.cpp ****         tmp->next = tmp2;
  87:src/SchedulerABI.cpp ****     }
  88:src/SchedulerABI.cpp ****     //ostala promjena kontexta;
  89:src/SchedulerABI.cpp ****     ThreadABI::yield();
 201              		.loc 1 89 5 is_stmt 1
 202              		.loc 1 89 21 is_stmt 0
 203 0124 97000000 		call	_ZN9ThreadABI5yieldEv@plt
 203      E7800000 
 204              	.LVL8:
  90:src/SchedulerABI.cpp **** }
 205              		.loc 1 90 1
 206 012c 83308100 		ld	ra,8(sp)
 207              		.cfi_remember_state
 208              		.cfi_restore 1
 209 0130 03340100 		ld	s0,0(sp)
 210              		.cfi_restore 8
 211              		.cfi_def_cfa 2, 16
 212 0134 13010101 		addi	sp,sp,16
 213              		.cfi_def_cfa_offset 0
 214 0138 67800000 		jr	ra
 215              	.LVL9:
 216              	.L15:
 217              		.cfi_restore_state
 218              	.LBB7:
 219              	.LBB6:
  82:src/SchedulerABI.cpp ****             tmp = tmp->next;
 220              		.loc 1 82 9 is_stmt 1
  82:src/SchedulerABI.cpp ****             tmp = tmp->next;
 221              		.loc 1 82 37
 222 013c 13860700 		mv	a2,a5
  82:src/SchedulerABI.cpp ****             tmp = tmp->next;
 223              		.loc 1 82 21 is_stmt 0
 224 0140 83B70700 		ld	a5,0(a5)
 225              	.LVL10:
GAS LISTING /tmp/ccUCloaK.s 			page 7


  82:src/SchedulerABI.cpp ****             tmp = tmp->next;
 226              		.loc 1 82 37
 227 0144 63860700 		beqz	a5,.L17
  82:src/SchedulerABI.cpp ****             tmp = tmp->next;
 228              		.loc 1 82 51 discriminator 1
 229 0148 03B78703 		ld	a4,56(a5)
  82:src/SchedulerABI.cpp ****             tmp = tmp->next;
 230              		.loc 1 82 37 discriminator 1
 231 014c E368A7FE 		bltu	a4,a0,.L15
 232              	.L17:
  85:src/SchedulerABI.cpp ****         tmp->next = tmp2;
 233              		.loc 1 85 9 is_stmt 1
  85:src/SchedulerABI.cpp ****         tmp->next = tmp2;
 234              		.loc 1 85 20 is_stmt 0
 235 0150 23B0F600 		sd	a5,0(a3)
  86:src/SchedulerABI.cpp ****     }
 236              		.loc 1 86 9 is_stmt 1
  86:src/SchedulerABI.cpp ****     }
 237              		.loc 1 86 19 is_stmt 0
 238 0154 2330D600 		sd	a3,0(a2)
 239 0158 6FF0DFFC 		j	.L16
 240              	.LBE6:
 241              	.LBE7:
 242              		.cfi_endproc
 243              	.LFE15:
 245              		.align	2
 246              		.globl	_ZN12SchedulerABI20getInstanceSchedulerEv
 248              	_ZN12SchedulerABI20getInstanceSchedulerEv:
 249              	.LFB16:
  91:src/SchedulerABI.cpp **** 
  92:src/SchedulerABI.cpp **** SchedulerABI &SchedulerABI::getInstanceScheduler() {
 250              		.loc 1 92 52 is_stmt 1
 251              		.cfi_startproc
 252 015c 130101FF 		addi	sp,sp,-16
 253              		.cfi_def_cfa_offset 16
 254 0160 23348100 		sd	s0,8(sp)
 255              		.cfi_offset 8, -8
 256 0164 13040101 		addi	s0,sp,16
 257              		.cfi_def_cfa 8, 0
  93:src/SchedulerABI.cpp ****     static SchedulerABI instance;
 258              		.loc 1 93 5
 259              		.loc 1 93 25 is_stmt 0
 260 0168 97070000 		lbu	a5,.LANCHOR0+24
 260      83C70700 
 261 0170 63980700 		bnez	a5,.L20
 262              		.loc 1 93 25 discriminator 1
 263 0174 93071000 		li	a5,1
 264 0178 17070000 		sb	a5,.LANCHOR0+24,a4
 264      2300F700 
 265              	.L20:
  94:src/SchedulerABI.cpp ****     return instance;
 266              		.loc 1 94 5 is_stmt 1
  95:src/SchedulerABI.cpp **** }
 267              		.loc 1 95 1 is_stmt 0
 268 0180 17050000 		lla	a0,.LANCHOR0+32
 268      13050500 
 269 0188 03348100 		ld	s0,8(sp)
GAS LISTING /tmp/ccUCloaK.s 			page 8


 270              		.cfi_restore 8
 271              		.cfi_def_cfa 2, 16
 272 018c 13010101 		addi	sp,sp,16
 273              		.cfi_def_cfa_offset 0
 274 0190 67800000 		jr	ra
 275              		.cfi_endproc
 276              	.LFE16:
 278              		.globl	_ZN12SchedulerABI9tailreadyE
 279              		.globl	_ZN12SchedulerABI9headreadyE
 280              		.globl	_ZN12SchedulerABI9headsleepE
 281              		.bss
 282              		.align	3
 283              		.set	.LANCHOR0,. + 0
 286              	_ZN12SchedulerABI9headreadyE:
 287 0000 00000000 		.zero	8
 287      00000000 
 290              	_ZN12SchedulerABI9tailreadyE:
 291 0008 00000000 		.zero	8
 291      00000000 
 294              	_ZN12SchedulerABI9headsleepE:
 295 0010 00000000 		.zero	8
 295      00000000 
 298              	_ZGVZN12SchedulerABI20getInstanceSchedulerEvE8instance:
 299 0018 00000000 		.zero	8
 299      00000000 
 302              	_ZZN12SchedulerABI20getInstanceSchedulerEvE8instance:
 303 0020 00       		.zero	1
 304              		.text
 305              	.Letext0:
 306              		.file 2 "src/../h/../lib/hw.h"
 307              		.file 3 "src/../h/SchedulerABI.hpp"
 308              		.file 4 "src/../h/ThreadABI.hpp"
GAS LISTING /tmp/ccUCloaK.s 			page 9

