GAS LISTING /tmp/ccxmGSiR.s 			page 1


   1              		.file	"syscall_c.cpp"
   2              		.option pic
   3              		.option norelax
   4              		.text
   5              	.Ltext0:
   6              		.align	2
   7              		.globl	_Z9mem_allocm
   9              	_Z9mem_allocm:
  10              	.LFB28:
  11              		.file 1 "src/syscall_c.cpp"
   1:src/syscall_c.cpp **** 
   2:src/syscall_c.cpp **** #include "../lib/hw.h"
   3:src/syscall_c.cpp **** 
   4:src/syscall_c.cpp **** #include "../h/syscall_c.h"
   5:src/syscall_c.cpp **** #include "../h/SchedulerABI.hpp"
   6:src/syscall_c.cpp **** #include "../h/BufferPrinting.hpp"
   7:src/syscall_c.cpp **** 
   8:src/syscall_c.cpp **** 
   9:src/syscall_c.cpp **** void* mem_alloc (size_t size){
  12              		.loc 1 9 30
  13              		.cfi_startproc
  14              	.LVL0:
  15 0000 130101FF 		addi	sp,sp,-16
  16              		.cfi_def_cfa_offset 16
  17 0004 23348100 		sd	s0,8(sp)
  18              		.cfi_offset 8, -8
  19 0008 13040101 		addi	s0,sp,16
  20              		.cfi_def_cfa 8, 0
  10:src/syscall_c.cpp ****     size_t cnt=0;
  21              		.loc 1 10 5
  22              	.LVL1:
  11:src/syscall_c.cpp ****     void *povr;
  23              		.loc 1 11 5
  12:src/syscall_c.cpp ****     uint64 code=0x01;
  24              		.loc 1 12 5
  13:src/syscall_c.cpp ****     size_t t;
  25              		.loc 1 13 5
  14:src/syscall_c.cpp ****     cnt=(size+(sizeof(size_t)))/MEM_BLOCK_SIZE;
  26              		.loc 1 14 5
  27              		.loc 1 14 14 is_stmt 0
  28 000c 13058500 		addi	a0,a0,8
  29              	.LVL2:
  30              		.loc 1 14 8
  31 0010 93576500 		srli	a5,a0,6
  32              	.LVL3:
  15:src/syscall_c.cpp ****     t=(size+(sizeof(size_t)))%MEM_BLOCK_SIZE;
  33              		.loc 1 15 5 is_stmt 1
  34              		.loc 1 15 6 is_stmt 0
  35 0014 1375F503 		andi	a0,a0,63
  36              	.LVL4:
  16:src/syscall_c.cpp ****     if(t!=cnt)cnt++;
  37              		.loc 1 16 5 is_stmt 1
  38 0018 6384A700 		beq	a5,a0,.L2
  39              		.loc 1 16 15 discriminator 1
  40              		.loc 1 16 18 is_stmt 0 discriminator 1
  41 001c 93871700 		addi	a5,a5,1
  42              	.LVL5:
GAS LISTING /tmp/ccxmGSiR.s 			page 2


  43              	.L2:
  17:src/syscall_c.cpp ****     cnt*=MEM_BLOCK_SIZE;
  44              		.loc 1 17 5 is_stmt 1
  45              		.loc 1 17 8 is_stmt 0
  46 0020 93976700 		slli	a5,a5,6
  47              	.LVL6:
  18:src/syscall_c.cpp **** 
  19:src/syscall_c.cpp ****     __asm__ volatile("mv a0, %0" : : "r" (code));
  48              		.loc 1 19 5 is_stmt 1
  49              		.loc 1 19 49 is_stmt 0
  50 0024 13071000 		li	a4,1
  51              	#APP
  52              	# 19 "src/syscall_c.cpp" 1
  20              	    __asm__ volatile("mv a1, %0" : : "r" (cnt));
  53              		mv a0, a4
  54              	# 0 "" 2
  55              		.loc 1 20 5 is_stmt 1
  56              		.loc 1 20 48 is_stmt 0
  57              	# 20 "src/syscall_c.cpp" 1
  21              	   __asm__ volatile("ecall");
  58              		mv a1, a5
  59              	# 0 "" 2
  60              		.loc 1 21 4 is_stmt 1
  61              		.loc 1 21 29 is_stmt 0
  62              	# 21 "src/syscall_c.cpp" 1
  22              	   __asm__ volatile("mv %0, a0" : "=r" (povr));
  63              		ecall
  64              	# 0 "" 2
  65              		.loc 1 22 4 is_stmt 1
  66              		.loc 1 22 47 is_stmt 0
  67              	# 22 "src/syscall_c.cpp" 1
  23              	    return povr;
  68              		mv a0, a0
  69              	# 0 "" 2
  70              	.LVL7:
  71              		.loc 1 23 5 is_stmt 1
  24:src/syscall_c.cpp **** }
  72              		.loc 1 24 1 is_stmt 0
  73              	#NO_APP
  74 0038 03348100 		ld	s0,8(sp)
  75              		.cfi_restore 8
  76              		.cfi_def_cfa 2, 16
  77 003c 13010101 		addi	sp,sp,16
  78              		.cfi_def_cfa_offset 0
  79 0040 67800000 		jr	ra
  80              		.cfi_endproc
  81              	.LFE28:
  83              		.align	2
  84              		.globl	_Z8mem_freePv
  86              	_Z8mem_freePv:
  87              	.LFB29:
  25:src/syscall_c.cpp **** 
  26:src/syscall_c.cpp **** int mem_free (void* arg){
  88              		.loc 1 26 25 is_stmt 1
  89              		.cfi_startproc
  90              	.LVL8:
  91 0044 130101FF 		addi	sp,sp,-16
GAS LISTING /tmp/ccxmGSiR.s 			page 3


  92              		.cfi_def_cfa_offset 16
  93 0048 23348100 		sd	s0,8(sp)
  94              		.cfi_offset 8, -8
  95 004c 13040101 		addi	s0,sp,16
  96              		.cfi_def_cfa 8, 0
  27:src/syscall_c.cpp ****     uint64 code=0x02;
  97              		.loc 1 27 5
  98              	.LVL9:
  28:src/syscall_c.cpp ****     uint64 flag;
  99              		.loc 1 28 5
  29:src/syscall_c.cpp ****     void * handler=arg;
 100              		.loc 1 29 5
  30:src/syscall_c.cpp ****     __asm__ volatile("mv a1, %0" : : "r" (handler));
 101              		.loc 1 30 5
 102              		.loc 1 30 52 is_stmt 0
 103              	#APP
 104              	# 30 "src/syscall_c.cpp" 1
  31              	    __asm__ volatile("mv a0, %0" : : "r" (code));
 105              		mv a1, a0
 106              	# 0 "" 2
 107              		.loc 1 31 5 is_stmt 1
 108              		.loc 1 31 49 is_stmt 0
 109              	#NO_APP
 110 0054 93072000 		li	a5,2
 111              	#APP
 112              	# 31 "src/syscall_c.cpp" 1
  32              	    __asm__ volatile("ecall");
 113              		mv a0, a5
 114              	# 0 "" 2
 115              		.loc 1 32 5 is_stmt 1
 116              		.loc 1 32 30 is_stmt 0
 117              	# 32 "src/syscall_c.cpp" 1
  33              	    __asm__ volatile("mv %0, a0" : "=r" (flag));
 118              		ecall
 119              	# 0 "" 2
 120              		.loc 1 33 5 is_stmt 1
 121              		.loc 1 33 48 is_stmt 0
 122              	# 33 "src/syscall_c.cpp" 1
  34              	    if(flag==0x696969) return 0;
 123              		mv a4, a0
 124              	# 0 "" 2
 125              	.LVL10:
 126              		.loc 1 34 5 is_stmt 1
 127              	#NO_APP
 128 0064 B7776900 		li	a5,6909952
 129 0068 93879796 		addi	a5,a5,-1687
 130 006c 631AF700 		bne	a4,a5,.L6
 131              		.loc 1 34 31 is_stmt 0
 132 0070 13050000 		li	a0,0
 133              	.LVL11:
 134              	.L5:
  35:src/syscall_c.cpp ****     else return -1;
  36:src/syscall_c.cpp **** 
  37:src/syscall_c.cpp **** }
 135              		.loc 1 37 1
 136 0074 03348100 		ld	s0,8(sp)
 137              		.cfi_remember_state
GAS LISTING /tmp/ccxmGSiR.s 			page 4


 138              		.cfi_restore 8
 139              		.cfi_def_cfa 2, 16
 140 0078 13010101 		addi	sp,sp,16
 141              		.cfi_def_cfa_offset 0
 142 007c 67800000 		jr	ra
 143              	.LVL12:
 144              	.L6:
 145              		.cfi_restore_state
  35:src/syscall_c.cpp ****     else return -1;
 146              		.loc 1 35 18
 147 0080 1305F0FF 		li	a0,-1
 148              	.LVL13:
 149 0084 6FF01FFF 		j	.L5
 150              		.cfi_endproc
 151              	.LFE29:
 153              		.align	2
 154              		.globl	_Z15thread_dispatchv
 156              	_Z15thread_dispatchv:
 157              	.LFB30:
  38:src/syscall_c.cpp **** 
  39:src/syscall_c.cpp **** void thread_dispatch() {
 158              		.loc 1 39 24 is_stmt 1
 159              		.cfi_startproc
 160 0088 130101FF 		addi	sp,sp,-16
 161              		.cfi_def_cfa_offset 16
 162 008c 23348100 		sd	s0,8(sp)
 163              		.cfi_offset 8, -8
 164 0090 13040101 		addi	s0,sp,16
 165              		.cfi_def_cfa 8, 0
  40:src/syscall_c.cpp ****     uint64 code=0x13;
 166              		.loc 1 40 5
 167              	.LVL14:
  41:src/syscall_c.cpp ****     __asm__ volatile("mv a0, %0" : : "r" (code));
 168              		.loc 1 41 5
 169              		.loc 1 41 49 is_stmt 0
 170 0094 93073001 		li	a5,19
 171              	#APP
 172              	# 41 "src/syscall_c.cpp" 1
  42              	    __asm__ volatile("ecall");
 173              		mv a0, a5
 174              	# 0 "" 2
 175              		.loc 1 42 5 is_stmt 1
 176              		.loc 1 42 30 is_stmt 0
 177              	# 42 "src/syscall_c.cpp" 1
  43              	
  44:src/syscall_c.cpp **** 
  45:src/syscall_c.cpp **** }
 178              		ecall
 179              	# 0 "" 2
 180              		.loc 1 45 1
 181              	#NO_APP
 182 00a0 03348100 		ld	s0,8(sp)
 183              		.cfi_restore 8
 184              		.cfi_def_cfa 2, 16
 185 00a4 13010101 		addi	sp,sp,16
 186              		.cfi_def_cfa_offset 0
 187 00a8 67800000 		jr	ra
GAS LISTING /tmp/ccxmGSiR.s 			page 5


 188              		.cfi_endproc
 189              	.LFE30:
 191              		.align	2
 192              		.globl	_Z11thread_exitv
 194              	_Z11thread_exitv:
 195              	.LFB31:
  46:src/syscall_c.cpp **** 
  47:src/syscall_c.cpp **** int thread_exit() {
 196              		.loc 1 47 19 is_stmt 1
 197              		.cfi_startproc
 198 00ac 130101FF 		addi	sp,sp,-16
 199              		.cfi_def_cfa_offset 16
 200 00b0 23348100 		sd	s0,8(sp)
 201              		.cfi_offset 8, -8
 202 00b4 13040101 		addi	s0,sp,16
 203              		.cfi_def_cfa 8, 0
  48:src/syscall_c.cpp ****     uint64 code=0x12;
 204              		.loc 1 48 5
 205              	.LVL15:
  49:src/syscall_c.cpp ****     __asm__ volatile("mv a0, %0" : : "r" (code));
 206              		.loc 1 49 5
 207              		.loc 1 49 49 is_stmt 0
 208 00b8 93072001 		li	a5,18
 209              	#APP
 210              	# 49 "src/syscall_c.cpp" 1
  50              	    __asm__ volatile("ecall");
 211              		mv a0, a5
 212              	# 0 "" 2
 213              		.loc 1 50 5 is_stmt 1
 214              		.loc 1 50 30 is_stmt 0
 215              	# 50 "src/syscall_c.cpp" 1
  51              	    return 0;
 216              		ecall
 217              	# 0 "" 2
 218              		.loc 1 51 5 is_stmt 1
  52:src/syscall_c.cpp **** }
 219              		.loc 1 52 1 is_stmt 0
 220              	#NO_APP
 221 00c4 13050000 		li	a0,0
 222 00c8 03348100 		ld	s0,8(sp)
 223              		.cfi_restore 8
 224              		.cfi_def_cfa 2, 16
 225 00cc 13010101 		addi	sp,sp,16
 226              		.cfi_def_cfa_offset 0
 227 00d0 67800000 		jr	ra
 228              		.cfi_endproc
 229              	.LFE31:
 231              		.align	2
 232              		.globl	_Z13thread_createPP9ThreadABIPFvPvES2_
 234              	_Z13thread_createPP9ThreadABIPFvPvES2_:
 235              	.LFB32:
  53:src/syscall_c.cpp **** 
  54:src/syscall_c.cpp **** 
  55:src/syscall_c.cpp **** int thread_create(thread_t *handle, void (*start_routine)(void *), void *arg) {
 236              		.loc 1 55 79 is_stmt 1
 237              		.cfi_startproc
 238              	.LVL16:
GAS LISTING /tmp/ccxmGSiR.s 			page 6


 239 00d4 130101FD 		addi	sp,sp,-48
 240              		.cfi_def_cfa_offset 48
 241 00d8 23341102 		sd	ra,40(sp)
 242 00dc 23308102 		sd	s0,32(sp)
 243 00e0 233C9100 		sd	s1,24(sp)
 244 00e4 23382101 		sd	s2,16(sp)
 245 00e8 23343101 		sd	s3,8(sp)
 246              		.cfi_offset 1, -8
 247              		.cfi_offset 8, -16
 248              		.cfi_offset 9, -24
 249              		.cfi_offset 18, -32
 250              		.cfi_offset 19, -40
 251 00ec 13040103 		addi	s0,sp,48
 252              		.cfi_def_cfa 8, 0
 253 00f0 13090500 		mv	s2,a0
 254 00f4 93840500 		mv	s1,a1
 255 00f8 93090600 		mv	s3,a2
  56:src/syscall_c.cpp ****     __asm__ volatile("mv a4, %0" : : "r" (mem_alloc(DEFAULT_STACK_SIZE)));
 256              		.loc 1 56 5
 257              		.loc 1 56 52 is_stmt 0
 258 00fc 37150000 		li	a0,4096
 259              	.LVL17:
 260 0100 97000000 		call	_Z9mem_allocm
 260      E7800000 
 261              	.LVL18:
 262              		.loc 1 56 74
 263              	#APP
 264              	# 56 "src/syscall_c.cpp" 1
  57              	    __asm__ volatile("mv a3, %0" : : "r" (arg));
 265              		mv a4, a0
 266              	# 0 "" 2
 267              		.loc 1 57 5 is_stmt 1
 268              		.loc 1 57 48 is_stmt 0
 269              	# 57 "src/syscall_c.cpp" 1
  58              	    __asm__ volatile("mv a2, %0" : : "r" (start_routine));
 270              		mv a3, s3
 271              	# 0 "" 2
 272              		.loc 1 58 5 is_stmt 1
 273              		.loc 1 58 58 is_stmt 0
 274              	# 58 "src/syscall_c.cpp" 1
  59              	
  60:src/syscall_c.cpp ****     __asm__ volatile("li a0, 0x11" );
 275              		mv a2, s1
 276              	# 0 "" 2
 277              		.loc 1 60 5 is_stmt 1
 278              		.loc 1 60 37 is_stmt 0
 279              	# 60 "src/syscall_c.cpp" 1
  61              	    __asm__ volatile("mv a1, %0" : : "r" ((void *)handle));
 280              		li a0, 0x11
 281              	# 0 "" 2
 282              		.loc 1 61 5 is_stmt 1
 283              		.loc 1 61 59 is_stmt 0
 284              	# 61 "src/syscall_c.cpp" 1
  62              	
  63:src/syscall_c.cpp ****     __asm__ volatile("ecall");
 285              		mv a1, s2
 286              	# 0 "" 2
GAS LISTING /tmp/ccxmGSiR.s 			page 7


 287              		.loc 1 63 5 is_stmt 1
 288              		.loc 1 63 30 is_stmt 0
 289              	# 63 "src/syscall_c.cpp" 1
  64              	    int povr;
 290              		ecall
 291              	# 0 "" 2
 292              		.loc 1 64 5 is_stmt 1
  65:src/syscall_c.cpp ****     __asm__ volatile("mv %0, a0" : "=r" (povr));
 293              		.loc 1 65 5
 294              		.loc 1 65 48 is_stmt 0
 295              	# 65 "src/syscall_c.cpp" 1
  66              	    if(povr==0){
 296              		mv s1, a0
 297              	# 0 "" 2
 298              	.LVL19:
 299              	#NO_APP
 300 0124 9B840400 		sext.w	s1,s1
 301              	.LVL20:
 302              		.loc 1 66 5 is_stmt 1
 303 0128 63820402 		beqz	s1,.L15
 304              	.L13:
  67:src/syscall_c.cpp ****         SchedulerABI::getInstanceScheduler().put(*(handle));
  68:src/syscall_c.cpp ****     }
  69:src/syscall_c.cpp **** 
  70:src/syscall_c.cpp ****     return povr;
 305              		.loc 1 70 5
  71:src/syscall_c.cpp **** }
 306              		.loc 1 71 1 is_stmt 0
 307 012c 13850400 		mv	a0,s1
 308 0130 83308102 		ld	ra,40(sp)
 309              		.cfi_remember_state
 310              		.cfi_restore 1
 311 0134 03340102 		ld	s0,32(sp)
 312              		.cfi_restore 8
 313              		.cfi_def_cfa 2, 48
 314 0138 83348101 		ld	s1,24(sp)
 315              		.cfi_restore 9
 316              	.LVL21:
 317 013c 03390101 		ld	s2,16(sp)
 318              		.cfi_restore 18
 319              	.LVL22:
 320 0140 83398100 		ld	s3,8(sp)
 321              		.cfi_restore 19
 322              	.LVL23:
 323 0144 13010103 		addi	sp,sp,48
 324              		.cfi_def_cfa_offset 0
 325 0148 67800000 		jr	ra
 326              	.LVL24:
 327              	.L15:
 328              		.cfi_restore_state
  67:src/syscall_c.cpp ****         SchedulerABI::getInstanceScheduler().put(*(handle));
 329              		.loc 1 67 9 is_stmt 1
  67:src/syscall_c.cpp ****         SchedulerABI::getInstanceScheduler().put(*(handle));
 330              		.loc 1 67 44 is_stmt 0
 331 014c 97000000 		call	_ZN12SchedulerABI20getInstanceSchedulerEv@plt
 331      E7800000 
 332              	.LVL25:
GAS LISTING /tmp/ccxmGSiR.s 			page 8


  67:src/syscall_c.cpp ****         SchedulerABI::getInstanceScheduler().put(*(handle));
 333              		.loc 1 67 49
 334 0154 83350900 		ld	a1,0(s2)
 335 0158 97000000 		call	_ZN12SchedulerABI3putEP9ThreadABI@plt
 335      E7800000 
 336              	.LVL26:
 337 0160 6FF0DFFC 		j	.L13
 338              		.cfi_endproc
 339              	.LFE32:
 341              		.align	2
 342              		.globl	_Z8sem_openPP12SemaphoreABIj
 344              	_Z8sem_openPP12SemaphoreABIj:
 345              	.LFB33:
  72:src/syscall_c.cpp **** 
  73:src/syscall_c.cpp **** int sem_open(sem_t *handle, unsigned int init) {
 346              		.loc 1 73 48 is_stmt 1
 347              		.cfi_startproc
 348              	.LVL27:
 349 0164 130101FF 		addi	sp,sp,-16
 350              		.cfi_def_cfa_offset 16
 351 0168 23348100 		sd	s0,8(sp)
 352              		.cfi_offset 8, -8
 353 016c 13040101 		addi	s0,sp,16
 354              		.cfi_def_cfa 8, 0
  74:src/syscall_c.cpp ****     __asm__ volatile("mv a2, %0" : : "r" ((void*)handle));
 355              		.loc 1 74 5
 356              		.loc 1 74 58 is_stmt 0
 357              	#APP
 358              	# 74 "src/syscall_c.cpp" 1
  75              	    __asm__ volatile("mv a1, %0" : : "r" (init));
 359              		mv a2, a0
 360              	# 0 "" 2
 361              		.loc 1 75 5 is_stmt 1
 362              		.loc 1 75 49 is_stmt 0
 363              	# 75 "src/syscall_c.cpp" 1
  76              	    __asm__ volatile("li a0, 0x21" );
 364              		mv a1, a1
 365              	# 0 "" 2
 366              		.loc 1 76 5 is_stmt 1
 367              		.loc 1 76 37 is_stmt 0
 368              	# 76 "src/syscall_c.cpp" 1
  77              	    __asm__ volatile("ecall");
 369              		li a0, 0x21
 370              	# 0 "" 2
 371              		.loc 1 77 5 is_stmt 1
 372              		.loc 1 77 30 is_stmt 0
 373              	# 77 "src/syscall_c.cpp" 1
  78              	    int povr;
 374              		ecall
 375              	# 0 "" 2
 376              		.loc 1 78 5 is_stmt 1
  79:src/syscall_c.cpp ****     __asm__ volatile("mv %0, a0" : "=r" (povr));
 377              		.loc 1 79 5
 378              		.loc 1 79 48 is_stmt 0
 379              	# 79 "src/syscall_c.cpp" 1
  80              	    return povr;
 380              		mv a0, a0
GAS LISTING /tmp/ccxmGSiR.s 			page 9


 381              	# 0 "" 2
 382              	.LVL28:
 383              		.loc 1 80 5 is_stmt 1
  81:src/syscall_c.cpp **** }
 384              		.loc 1 81 1 is_stmt 0
 385              	#NO_APP
 386 0184 1B050500 		sext.w	a0,a0
 387 0188 03348100 		ld	s0,8(sp)
 388              		.cfi_restore 8
 389              		.cfi_def_cfa 2, 16
 390 018c 13010101 		addi	sp,sp,16
 391              		.cfi_def_cfa_offset 0
 392 0190 67800000 		jr	ra
 393              		.cfi_endproc
 394              	.LFE33:
 396              		.align	2
 397              		.globl	_Z9sem_closeP12SemaphoreABI
 399              	_Z9sem_closeP12SemaphoreABI:
 400              	.LFB34:
  82:src/syscall_c.cpp **** 
  83:src/syscall_c.cpp **** int sem_close(sem_t handle) {
 401              		.loc 1 83 29 is_stmt 1
 402              		.cfi_startproc
 403              	.LVL29:
 404 0194 130101FF 		addi	sp,sp,-16
 405              		.cfi_def_cfa_offset 16
 406 0198 23348100 		sd	s0,8(sp)
 407              		.cfi_offset 8, -8
 408 019c 13040101 		addi	s0,sp,16
 409              		.cfi_def_cfa 8, 0
  84:src/syscall_c.cpp ****     __asm__ volatile("mv a1, %0" : : "r" ((void*)handle));
 410              		.loc 1 84 5
 411              		.loc 1 84 58 is_stmt 0
 412              	#APP
 413              	# 84 "src/syscall_c.cpp" 1
  85              	    __asm__ volatile("li a0, 0x22" );
 414              		mv a1, a0
 415              	# 0 "" 2
 416              		.loc 1 85 5 is_stmt 1
 417              		.loc 1 85 37 is_stmt 0
 418              	# 85 "src/syscall_c.cpp" 1
  86              	    __asm__ volatile("ecall");
 419              		li a0, 0x22
 420              	# 0 "" 2
 421              		.loc 1 86 5 is_stmt 1
 422              		.loc 1 86 30 is_stmt 0
 423              	# 86 "src/syscall_c.cpp" 1
  87              	    int povr;
 424              		ecall
 425              	# 0 "" 2
 426              		.loc 1 87 5 is_stmt 1
  88:src/syscall_c.cpp ****     __asm__ volatile("mv %0, a0" : "=r" (povr));
 427              		.loc 1 88 5
 428              		.loc 1 88 48 is_stmt 0
 429              	# 88 "src/syscall_c.cpp" 1
  89              	    return povr;
 430              		mv a0, a0
GAS LISTING /tmp/ccxmGSiR.s 			page 10


 431              	# 0 "" 2
 432              	.LVL30:
 433              		.loc 1 89 5 is_stmt 1
  90:src/syscall_c.cpp **** }
 434              		.loc 1 90 1 is_stmt 0
 435              	#NO_APP
 436 01b0 1B050500 		sext.w	a0,a0
 437 01b4 03348100 		ld	s0,8(sp)
 438              		.cfi_restore 8
 439              		.cfi_def_cfa 2, 16
 440 01b8 13010101 		addi	sp,sp,16
 441              		.cfi_def_cfa_offset 0
 442 01bc 67800000 		jr	ra
 443              		.cfi_endproc
 444              	.LFE34:
 446              		.align	2
 447              		.globl	_Z8sem_waitP12SemaphoreABI
 449              	_Z8sem_waitP12SemaphoreABI:
 450              	.LFB35:
  91:src/syscall_c.cpp **** 
  92:src/syscall_c.cpp **** int sem_wait(sem_t id) {
 451              		.loc 1 92 24 is_stmt 1
 452              		.cfi_startproc
 453              	.LVL31:
 454 01c0 130101FF 		addi	sp,sp,-16
 455              		.cfi_def_cfa_offset 16
 456 01c4 23348100 		sd	s0,8(sp)
 457              		.cfi_offset 8, -8
 458 01c8 13040101 		addi	s0,sp,16
 459              		.cfi_def_cfa 8, 0
  93:src/syscall_c.cpp ****     __asm__ volatile("mv a1, %0" : : "r" ((void*)id));
 460              		.loc 1 93 5
 461              		.loc 1 93 54 is_stmt 0
 462              	#APP
 463              	# 93 "src/syscall_c.cpp" 1
  94              	    __asm__ volatile("li a0, 0x23" );
 464              		mv a1, a0
 465              	# 0 "" 2
 466              		.loc 1 94 5 is_stmt 1
 467              		.loc 1 94 37 is_stmt 0
 468              	# 94 "src/syscall_c.cpp" 1
  95              	    __asm__ volatile("ecall");
 469              		li a0, 0x23
 470              	# 0 "" 2
 471              		.loc 1 95 5 is_stmt 1
 472              		.loc 1 95 30 is_stmt 0
 473              	# 95 "src/syscall_c.cpp" 1
  96              	    int povr;
 474              		ecall
 475              	# 0 "" 2
 476              		.loc 1 96 5 is_stmt 1
  97:src/syscall_c.cpp ****     __asm__ volatile("mv %0, a0" : "=r" (povr));
 477              		.loc 1 97 5
 478              		.loc 1 97 48 is_stmt 0
 479              	# 97 "src/syscall_c.cpp" 1
  98              	    return povr;
 480              		mv a0, a0
GAS LISTING /tmp/ccxmGSiR.s 			page 11


 481              	# 0 "" 2
 482              	.LVL32:
 483              		.loc 1 98 5 is_stmt 1
  99:src/syscall_c.cpp **** 
 100:src/syscall_c.cpp **** }
 484              		.loc 1 100 1 is_stmt 0
 485              	#NO_APP
 486 01dc 1B050500 		sext.w	a0,a0
 487 01e0 03348100 		ld	s0,8(sp)
 488              		.cfi_restore 8
 489              		.cfi_def_cfa 2, 16
 490 01e4 13010101 		addi	sp,sp,16
 491              		.cfi_def_cfa_offset 0
 492 01e8 67800000 		jr	ra
 493              		.cfi_endproc
 494              	.LFE35:
 496              		.align	2
 497              		.globl	_Z10sem_signalP12SemaphoreABI
 499              	_Z10sem_signalP12SemaphoreABI:
 500              	.LFB36:
 101:src/syscall_c.cpp **** 
 102:src/syscall_c.cpp **** int sem_signal(sem_t id) {
 501              		.loc 1 102 26 is_stmt 1
 502              		.cfi_startproc
 503              	.LVL33:
 504 01ec 130101FF 		addi	sp,sp,-16
 505              		.cfi_def_cfa_offset 16
 506 01f0 23348100 		sd	s0,8(sp)
 507              		.cfi_offset 8, -8
 508 01f4 13040101 		addi	s0,sp,16
 509              		.cfi_def_cfa 8, 0
 103:src/syscall_c.cpp ****     __asm__ volatile("mv a1, %0" : : "r" ((void*)id));
 510              		.loc 1 103 5
 511              		.loc 1 103 54 is_stmt 0
 512              	#APP
 513              	# 103 "src/syscall_c.cpp" 1
 104              	    __asm__ volatile("li a0, 0x24" );
 514              		mv a1, a0
 515              	# 0 "" 2
 516              		.loc 1 104 5 is_stmt 1
 517              		.loc 1 104 37 is_stmt 0
 518              	# 104 "src/syscall_c.cpp" 1
 105              	    __asm__ volatile("ecall");
 519              		li a0, 0x24
 520              	# 0 "" 2
 521              		.loc 1 105 5 is_stmt 1
 522              		.loc 1 105 30 is_stmt 0
 523              	# 105 "src/syscall_c.cpp" 1
 106              	    int povr;
 524              		ecall
 525              	# 0 "" 2
 526              		.loc 1 106 5 is_stmt 1
 107:src/syscall_c.cpp ****     __asm__ volatile("mv %0, a0" : "=r" (povr));
 527              		.loc 1 107 5
 528              		.loc 1 107 48 is_stmt 0
 529              	# 107 "src/syscall_c.cpp" 1
 108              	    return povr;
GAS LISTING /tmp/ccxmGSiR.s 			page 12


 530              		mv a0, a0
 531              	# 0 "" 2
 532              	.LVL34:
 533              		.loc 1 108 5 is_stmt 1
 109:src/syscall_c.cpp **** }
 534              		.loc 1 109 1 is_stmt 0
 535              	#NO_APP
 536 0208 1B050500 		sext.w	a0,a0
 537 020c 03348100 		ld	s0,8(sp)
 538              		.cfi_restore 8
 539              		.cfi_def_cfa 2, 16
 540 0210 13010101 		addi	sp,sp,16
 541              		.cfi_def_cfa_offset 0
 542 0214 67800000 		jr	ra
 543              		.cfi_endproc
 544              	.LFE36:
 546              		.align	2
 547              		.globl	_Z10time_sleepm
 549              	_Z10time_sleepm:
 550              	.LFB37:
 110:src/syscall_c.cpp **** 
 111:src/syscall_c.cpp **** int time_sleep(time_t time) {
 551              		.loc 1 111 29 is_stmt 1
 552              		.cfi_startproc
 553              	.LVL35:
 554 0218 130101FF 		addi	sp,sp,-16
 555              		.cfi_def_cfa_offset 16
 556 021c 23348100 		sd	s0,8(sp)
 557              		.cfi_offset 8, -8
 558 0220 13040101 		addi	s0,sp,16
 559              		.cfi_def_cfa 8, 0
 112:src/syscall_c.cpp ****     if(time==0)return -1;
 560              		.loc 1 112 5
 561 0224 63020502 		beqz	a0,.L26
 113:src/syscall_c.cpp ****     __asm__ volatile("mv a1, %0" : : "r" (time));
 562              		.loc 1 113 5
 563              		.loc 1 113 49 is_stmt 0
 564              	#APP
 565              	# 113 "src/syscall_c.cpp" 1
 114              	    __asm__ volatile("li a0, 0x31" );
 566              		mv a1, a0
 567              	# 0 "" 2
 568              		.loc 1 114 5 is_stmt 1
 569              		.loc 1 114 37 is_stmt 0
 570              	# 114 "src/syscall_c.cpp" 1
 115              	    __asm__ volatile("ecall");
 571              		li a0, 0x31
 572              	# 0 "" 2
 573              		.loc 1 115 5 is_stmt 1
 574              		.loc 1 115 30 is_stmt 0
 575              	# 115 "src/syscall_c.cpp" 1
 116              	    int povr;
 576              		ecall
 577              	# 0 "" 2
 578              		.loc 1 116 5 is_stmt 1
 117:src/syscall_c.cpp ****     __asm__ volatile("mv %0, a0" : "=r" (povr));
 579              		.loc 1 117 5
GAS LISTING /tmp/ccxmGSiR.s 			page 13


 580              		.loc 1 117 48 is_stmt 0
 581              	# 117 "src/syscall_c.cpp" 1
 118              	    return povr;
 582              		mv a0, a0
 583              	# 0 "" 2
 584              	.LVL36:
 585              	#NO_APP
 586 0238 1B050500 		sext.w	a0,a0
 587              	.LVL37:
 588              		.loc 1 118 5 is_stmt 1
 589              	.L25:
 119:src/syscall_c.cpp **** }
 590              		.loc 1 119 1 is_stmt 0
 591 023c 03348100 		ld	s0,8(sp)
 592              		.cfi_remember_state
 593              		.cfi_restore 8
 594              		.cfi_def_cfa 2, 16
 595 0240 13010101 		addi	sp,sp,16
 596              		.cfi_def_cfa_offset 0
 597 0244 67800000 		jr	ra
 598              	.LVL38:
 599              	.L26:
 600              		.cfi_restore_state
 112:src/syscall_c.cpp ****     __asm__ volatile("mv a1, %0" : : "r" (time));
 601              		.loc 1 112 24
 602 0248 1305F0FF 		li	a0,-1
 603              	.LVL39:
 604 024c 6FF01FFF 		j	.L25
 605              		.cfi_endproc
 606              	.LFE37:
 608              		.align	2
 609              		.globl	_Z4getcv
 611              	_Z4getcv:
 612              	.LFB38:
 120:src/syscall_c.cpp **** 
 121:src/syscall_c.cpp **** char getc (){
 613              		.loc 1 121 13 is_stmt 1
 614              		.cfi_startproc
 615 0250 130101FF 		addi	sp,sp,-16
 616              		.cfi_def_cfa_offset 16
 617 0254 23348100 		sd	s0,8(sp)
 618              		.cfi_offset 8, -8
 619 0258 13040101 		addi	s0,sp,16
 620              		.cfi_def_cfa 8, 0
 122:src/syscall_c.cpp ****     BufferPrinting::tmpget++;
 621              		.loc 1 122 5
 622              		.loc 1 122 27 is_stmt 0
 623 025c 17070000 		la	a4,_ZN14BufferPrinting6tmpgetE
 623      03370700 
 624 0264 83270700 		lw	a5,0(a4)
 625 0268 9B871700 		addiw	a5,a5,1
 626 026c 2320F700 		sw	a5,0(a4)
 123:src/syscall_c.cpp ****     __asm__ volatile("li a0,0x41");
 627              		.loc 1 123 5 is_stmt 1
 628              		.loc 1 123 35 is_stmt 0
 629              	#APP
 630              	# 123 "src/syscall_c.cpp" 1
GAS LISTING /tmp/ccxmGSiR.s 			page 14


 124              	    __asm__ volatile("ecall");
 631              		li a0,0x41
 632              	# 0 "" 2
 633              		.loc 1 124 5 is_stmt 1
 634              		.loc 1 124 30 is_stmt 0
 635              	# 124 "src/syscall_c.cpp" 1
 125              	
 126:src/syscall_c.cpp ****     int povr;
 636              		ecall
 637              	# 0 "" 2
 638              		.loc 1 126 5 is_stmt 1
 127:src/syscall_c.cpp ****     __asm__ volatile("mv %0, a0" : "=r" (povr));
 639              		.loc 1 127 5
 640              		.loc 1 127 48 is_stmt 0
 641              	# 127 "src/syscall_c.cpp" 1
 128              	
 642              		mv a0, a0
 643              	# 0 "" 2
 644              	.LVL40:
 129:src/syscall_c.cpp ****     return povr;
 645              		.loc 1 129 5 is_stmt 1
 130:src/syscall_c.cpp **** }
 646              		.loc 1 130 1 is_stmt 0
 647              	#NO_APP
 648 027c 1375F50F 		andi	a0,a0,0xff
 649              	.LVL41:
 650 0280 03348100 		ld	s0,8(sp)
 651              		.cfi_restore 8
 652              		.cfi_def_cfa 2, 16
 653 0284 13010101 		addi	sp,sp,16
 654              		.cfi_def_cfa_offset 0
 655 0288 67800000 		jr	ra
 656              		.cfi_endproc
 657              	.LFE38:
 659              		.align	2
 660              		.globl	_Z4putcc
 662              	_Z4putcc:
 663              	.LFB39:
 131:src/syscall_c.cpp **** 
 132:src/syscall_c.cpp **** 
 133:src/syscall_c.cpp **** 
 134:src/syscall_c.cpp **** void putc (char c){
 664              		.loc 1 134 19 is_stmt 1
 665              		.cfi_startproc
 666              	.LVL42:
 667 028c 130101FF 		addi	sp,sp,-16
 668              		.cfi_def_cfa_offset 16
 669 0290 23348100 		sd	s0,8(sp)
 670              		.cfi_offset 8, -8
 671 0294 13040101 		addi	s0,sp,16
 672              		.cfi_def_cfa 8, 0
 135:src/syscall_c.cpp ****     BufferPrinting::tmpput++;
 673              		.loc 1 135 5
 674              		.loc 1 135 27 is_stmt 0
 675 0298 17070000 		la	a4,_ZN14BufferPrinting6tmpputE
 675      03370700 
 676 02a0 83270700 		lw	a5,0(a4)
GAS LISTING /tmp/ccxmGSiR.s 			page 15


 677 02a4 9B871700 		addiw	a5,a5,1
 678 02a8 2320F700 		sw	a5,0(a4)
 136:src/syscall_c.cpp **** 
 137:src/syscall_c.cpp ****     __asm__ volatile("mv a1,%0" : : "r" (c));
 679              		.loc 1 137 5 is_stmt 1
 680              		.loc 1 137 45 is_stmt 0
 681              	#APP
 682              	# 137 "src/syscall_c.cpp" 1
 138              	    __asm__ volatile("li a0,0x42");
 683              		mv a1,a0
 684              	# 0 "" 2
 685              		.loc 1 138 5 is_stmt 1
 686              		.loc 1 138 35 is_stmt 0
 687              	# 138 "src/syscall_c.cpp" 1
 139              	    __asm__ volatile("ecall");
 688              		li a0,0x42
 689              	# 0 "" 2
 690              		.loc 1 139 5 is_stmt 1
 691              		.loc 1 139 30 is_stmt 0
 692              	# 139 "src/syscall_c.cpp" 1
 140              	
 141:src/syscall_c.cpp **** }
 693              		ecall
 694              	# 0 "" 2
 695              		.loc 1 141 1
 696              	#NO_APP
 697 02b8 03348100 		ld	s0,8(sp)
 698              		.cfi_restore 8
 699              		.cfi_def_cfa 2, 16
 700 02bc 13010101 		addi	sp,sp,16
 701              		.cfi_def_cfa_offset 0
 702 02c0 67800000 		jr	ra
 703              		.cfi_endproc
 704              	.LFE39:
 706              		.align	2
 707              		.globl	_Z8intoprivv
 709              	_Z8intoprivv:
 710              	.LFB40:
 142:src/syscall_c.cpp **** void intopriv(){
 711              		.loc 1 142 16 is_stmt 1
 712              		.cfi_startproc
 713 02c4 130101FF 		addi	sp,sp,-16
 714              		.cfi_def_cfa_offset 16
 715 02c8 23348100 		sd	s0,8(sp)
 716              		.cfi_offset 8, -8
 717 02cc 13040101 		addi	s0,sp,16
 718              		.cfi_def_cfa 8, 0
 143:src/syscall_c.cpp ****     __asm__ volatile("li a0,0xfe");
 719              		.loc 1 143 5
 720              		.loc 1 143 35 is_stmt 0
 721              	#APP
 722              	# 143 "src/syscall_c.cpp" 1
 144              	    __asm__ volatile("ecall");
 723              		li a0,0xfe
 724              	# 0 "" 2
 725              		.loc 1 144 5 is_stmt 1
 726              		.loc 1 144 30 is_stmt 0
GAS LISTING /tmp/ccxmGSiR.s 			page 16


 727              	# 144 "src/syscall_c.cpp" 1
 145              	}
 728              		ecall
 729              	# 0 "" 2
 730              		.loc 1 145 1
 731              	#NO_APP
 732 02d8 03348100 		ld	s0,8(sp)
 733              		.cfi_restore 8
 734              		.cfi_def_cfa 2, 16
 735 02dc 13010101 		addi	sp,sp,16
 736              		.cfi_def_cfa_offset 0
 737 02e0 67800000 		jr	ra
 738              		.cfi_endproc
 739              	.LFE40:
 741              		.align	2
 742              		.globl	_Z8intouserv
 744              	_Z8intouserv:
 745              	.LFB41:
 146:src/syscall_c.cpp **** void intouser(){
 746              		.loc 1 146 16 is_stmt 1
 747              		.cfi_startproc
 748 02e4 130101FF 		addi	sp,sp,-16
 749              		.cfi_def_cfa_offset 16
 750 02e8 23348100 		sd	s0,8(sp)
 751              		.cfi_offset 8, -8
 752 02ec 13040101 		addi	s0,sp,16
 753              		.cfi_def_cfa 8, 0
 147:src/syscall_c.cpp ****     __asm__ volatile("li a0,0xff");
 754              		.loc 1 147 5
 755              		.loc 1 147 35 is_stmt 0
 756              	#APP
 757              	# 147 "src/syscall_c.cpp" 1
 148              	    __asm__ volatile("ecall");
 758              		li a0,0xff
 759              	# 0 "" 2
 760              		.loc 1 148 5 is_stmt 1
 761              		.loc 1 148 30 is_stmt 0
 762              	# 148 "src/syscall_c.cpp" 1
 149              	}...
 763              		ecall
 764              	# 0 "" 2
 765              		.loc 1 149 1
 766              	#NO_APP
 767 02f8 03348100 		ld	s0,8(sp)
 768              		.cfi_restore 8
 769              		.cfi_def_cfa 2, 16
 770 02fc 13010101 		addi	sp,sp,16
 771              		.cfi_def_cfa_offset 0
 772 0300 67800000 		jr	ra
 773              		.cfi_endproc
 774              	.LFE41:
 776              	.Letext0:
 777              		.file 2 "src/../lib/hw.h"
 778              		.file 3 "src/../h/syscall_c.h"
 779              		.file 4 "src/../h/SemaphoreABI.hpp"
 780              		.file 5 "src/../h/SchedulerABI.hpp"
GAS LISTING /tmp/ccxmGSiR.s 			page 17

