GAS LISTING /tmp/ccsErYNu.s 			page 1


   1              		.file	"ThreadABI.cpp"
   2              		.option pic
   3              		.option norelax
   4              		.text
   5              	.Ltext0:
   6              		.align	2
   7              		.globl	_ZN9ThreadABI7popregsEv
   9              	_ZN9ThreadABI7popregsEv:
  10              	.LFB13:
  11              		.file 1 "src/ThreadABI.cpp"
   1:src/ThreadABI.cpp **** ////
   2:src/ThreadABI.cpp **** //// Created by os on 5/22/22.
   3:src/ThreadABI.cpp **** ////
   4:src/ThreadABI.cpp **** //
   5:src/ThreadABI.cpp **** #include "../h/ThreadABI.hpp"
   6:src/ThreadABI.cpp **** #include "../lib/console.h"
   7:src/ThreadABI.cpp **** //
   8:src/ThreadABI.cpp **** 
   9:src/ThreadABI.cpp **** 
  10:src/ThreadABI.cpp **** 
  11:src/ThreadABI.cpp **** ThreadABI *ThreadABI::running = nullptr;
  12:src/ThreadABI.cpp **** ThreadABI *ThreadABI::main = nullptr;
  13:src/ThreadABI.cpp **** ThreadABI *ThreadABI::idle = nullptr;
  14:src/ThreadABI.cpp **** 
  15:src/ThreadABI.cpp **** void ThreadABI::popregs() {
  12              		.loc 1 15 27
  13              		.cfi_startproc
  14 0000 130101FF 		addi	sp,sp,-16
  15              		.cfi_def_cfa_offset 16
  16 0004 23348100 		sd	s0,8(sp)
  17              		.cfi_offset 8, -8
  18 0008 13040101 		addi	s0,sp,16
  19              		.cfi_def_cfa 8, 0
  16:src/ThreadABI.cpp **** // Pop all registers
  17:src/ThreadABI.cpp ****     asm volatile("ld x3, 0x18(sp)");
  20              		.loc 1 17 5
  21              		.loc 1 17 36 is_stmt 0
  22              	#APP
  23              	# 17 "src/ThreadABI.cpp" 1
  18              	    asm volatile("ld x4, 0x20(sp)");
  24              		ld x3, 0x18(sp)
  25              	# 0 "" 2
  26              		.loc 1 18 5 is_stmt 1
  27              		.loc 1 18 36 is_stmt 0
  28              	# 18 "src/ThreadABI.cpp" 1
  19              	    asm volatile("ld x5, 0x28(sp)");
  29              		ld x4, 0x20(sp)
  30              	# 0 "" 2
  31              		.loc 1 19 5 is_stmt 1
  32              		.loc 1 19 36 is_stmt 0
  33              	# 19 "src/ThreadABI.cpp" 1
  20              	    asm volatile("ld x6, 0x30(sp)");
  34              		ld x5, 0x28(sp)
  35              	# 0 "" 2
  36              		.loc 1 20 5 is_stmt 1
  37              		.loc 1 20 36 is_stmt 0
  38              	# 20 "src/ThreadABI.cpp" 1
GAS LISTING /tmp/ccsErYNu.s 			page 2


  21              	    asm volatile("ld x7, 0x38(sp)");
  39              		ld x6, 0x30(sp)
  40              	# 0 "" 2
  41              		.loc 1 21 5 is_stmt 1
  42              		.loc 1 21 36 is_stmt 0
  43              	# 21 "src/ThreadABI.cpp" 1
  22              	    asm volatile("ld x8, 0x40(sp)");
  44              		ld x7, 0x38(sp)
  45              	# 0 "" 2
  46              		.loc 1 22 5 is_stmt 1
  47              		.loc 1 22 36 is_stmt 0
  48              	# 22 "src/ThreadABI.cpp" 1
  23              	    asm volatile("ld x9, 0x48(sp)");
  49              		ld x8, 0x40(sp)
  50              	# 0 "" 2
  51              		.loc 1 23 5 is_stmt 1
  52              		.loc 1 23 36 is_stmt 0
  53              	# 23 "src/ThreadABI.cpp" 1
  24              	    asm volatile("ld x10, 0x50(sp)");
  54              		ld x9, 0x48(sp)
  55              	# 0 "" 2
  56              		.loc 1 24 5 is_stmt 1
  57              		.loc 1 24 37 is_stmt 0
  58              	# 24 "src/ThreadABI.cpp" 1
  25              	    asm volatile("ld x11, 0x58(sp)");
  59              		ld x10, 0x50(sp)
  60              	# 0 "" 2
  61              		.loc 1 25 5 is_stmt 1
  62              		.loc 1 25 37 is_stmt 0
  63              	# 25 "src/ThreadABI.cpp" 1
  26              	    asm volatile("ld x12, 0x60(sp)");
  64              		ld x11, 0x58(sp)
  65              	# 0 "" 2
  66              		.loc 1 26 5 is_stmt 1
  67              		.loc 1 26 37 is_stmt 0
  68              	# 26 "src/ThreadABI.cpp" 1
  27              	    asm volatile("ld x13, 0x68(sp)");
  69              		ld x12, 0x60(sp)
  70              	# 0 "" 2
  71              		.loc 1 27 5 is_stmt 1
  72              		.loc 1 27 37 is_stmt 0
  73              	# 27 "src/ThreadABI.cpp" 1
  28              	    asm volatile("ld x14, 0x70(sp)");
  74              		ld x13, 0x68(sp)
  75              	# 0 "" 2
  76              		.loc 1 28 5 is_stmt 1
  77              		.loc 1 28 37 is_stmt 0
  78              	# 28 "src/ThreadABI.cpp" 1
  29              	    asm volatile("ld x15, 0x78(sp)");
  79              		ld x14, 0x70(sp)
  80              	# 0 "" 2
  81              		.loc 1 29 5 is_stmt 1
  82              		.loc 1 29 37 is_stmt 0
  83              	# 29 "src/ThreadABI.cpp" 1
  30              	    asm volatile("ld x16, 0x80(sp)");
  84              		ld x15, 0x78(sp)
  85              	# 0 "" 2
GAS LISTING /tmp/ccsErYNu.s 			page 3


  86              		.loc 1 30 5 is_stmt 1
  87              		.loc 1 30 37 is_stmt 0
  88              	# 30 "src/ThreadABI.cpp" 1
  31              	    asm volatile("ld x17, 0x88(sp)");
  89              		ld x16, 0x80(sp)
  90              	# 0 "" 2
  91              		.loc 1 31 5 is_stmt 1
  92              		.loc 1 31 37 is_stmt 0
  93              	# 31 "src/ThreadABI.cpp" 1
  32              	    asm volatile("ld x18, 0x90(sp)");
  94              		ld x17, 0x88(sp)
  95              	# 0 "" 2
  96              		.loc 1 32 5 is_stmt 1
  97              		.loc 1 32 37 is_stmt 0
  98              	# 32 "src/ThreadABI.cpp" 1
  33              	    asm volatile("ld x19, 0x98(sp)");
  99              		ld x18, 0x90(sp)
 100              	# 0 "" 2
 101              		.loc 1 33 5 is_stmt 1
 102              		.loc 1 33 37 is_stmt 0
 103              	# 33 "src/ThreadABI.cpp" 1
  34              	    asm volatile("ld x20, 0xa0(sp)");
 104              		ld x19, 0x98(sp)
 105              	# 0 "" 2
 106              		.loc 1 34 5 is_stmt 1
 107              		.loc 1 34 37 is_stmt 0
 108              	# 34 "src/ThreadABI.cpp" 1
  35              	    asm volatile("ld x21, 0xa8(sp)");
 109              		ld x20, 0xa0(sp)
 110              	# 0 "" 2
 111              		.loc 1 35 5 is_stmt 1
 112              		.loc 1 35 37 is_stmt 0
 113              	# 35 "src/ThreadABI.cpp" 1
  36              	    asm volatile("ld x22, 0xb0(sp)");
 114              		ld x21, 0xa8(sp)
 115              	# 0 "" 2
 116              		.loc 1 36 5 is_stmt 1
 117              		.loc 1 36 37 is_stmt 0
 118              	# 36 "src/ThreadABI.cpp" 1
  37              	    asm volatile("ld x23, 0xb8(sp)");
 119              		ld x22, 0xb0(sp)
 120              	# 0 "" 2
 121              		.loc 1 37 5 is_stmt 1
 122              		.loc 1 37 37 is_stmt 0
 123              	# 37 "src/ThreadABI.cpp" 1
  38              	    asm volatile("ld x24, 0xc0(sp)");
 124              		ld x23, 0xb8(sp)
 125              	# 0 "" 2
 126              		.loc 1 38 5 is_stmt 1
 127              		.loc 1 38 37 is_stmt 0
 128              	# 38 "src/ThreadABI.cpp" 1
  39              	    asm volatile("ld x25, 0xc8(sp)");
 129              		ld x24, 0xc0(sp)
 130              	# 0 "" 2
 131              		.loc 1 39 5 is_stmt 1
 132              		.loc 1 39 37 is_stmt 0
 133              	# 39 "src/ThreadABI.cpp" 1
GAS LISTING /tmp/ccsErYNu.s 			page 4


  40              	    asm volatile("ld x26, 0xd0(sp)");
 134              		ld x25, 0xc8(sp)
 135              	# 0 "" 2
 136              		.loc 1 40 5 is_stmt 1
 137              		.loc 1 40 37 is_stmt 0
 138              	# 40 "src/ThreadABI.cpp" 1
  41              	    asm volatile("ld x27, 0xd8(sp)");
 139              		ld x26, 0xd0(sp)
 140              	# 0 "" 2
 141              		.loc 1 41 5 is_stmt 1
 142              		.loc 1 41 37 is_stmt 0
 143              	# 41 "src/ThreadABI.cpp" 1
  42              	    asm volatile("ld x28, 0xe0(sp)");
 144              		ld x27, 0xd8(sp)
 145              	# 0 "" 2
 146              		.loc 1 42 5 is_stmt 1
 147              		.loc 1 42 37 is_stmt 0
 148              	# 42 "src/ThreadABI.cpp" 1
  43              	    asm volatile("ld x29, 0xe8(sp)");
 149              		ld x28, 0xe0(sp)
 150              	# 0 "" 2
 151              		.loc 1 43 5 is_stmt 1
 152              		.loc 1 43 37 is_stmt 0
 153              	# 43 "src/ThreadABI.cpp" 1
  44              	    asm volatile("ld x30, 0xf0(sp)");
 154              		ld x29, 0xe8(sp)
 155              	# 0 "" 2
 156              		.loc 1 44 5 is_stmt 1
 157              		.loc 1 44 37 is_stmt 0
 158              	# 44 "src/ThreadABI.cpp" 1
  45              	    asm volatile("ld x31, 0xf8(sp)");
 159              		ld x30, 0xf0(sp)
 160              	# 0 "" 2
 161              		.loc 1 45 5 is_stmt 1
 162              		.loc 1 45 37 is_stmt 0
 163              	# 45 "src/ThreadABI.cpp" 1
  46              	    asm volatile("addi sp, sp, 256");
 164              		ld x31, 0xf8(sp)
 165              	# 0 "" 2
 166              		.loc 1 46 5 is_stmt 1
 167              		.loc 1 46 37 is_stmt 0
 168              	# 46 "src/ThreadABI.cpp" 1
  47              	}
 169              		addi sp, sp, 256
 170              	# 0 "" 2
 171              		.loc 1 47 1
 172              	#NO_APP
 173 0084 03348100 		ld	s0,8(sp)
 174              		.cfi_restore 8
 175              		.cfi_def_cfa 2, 16
 176 0088 13010101 		addi	sp,sp,16
 177              		.cfi_def_cfa_offset 0
 178 008c 67800000 		jr	ra
 179              		.cfi_endproc
 180              	.LFE13:
 182              		.align	2
 183              		.globl	_ZN9ThreadABI8pushregsEv
GAS LISTING /tmp/ccsErYNu.s 			page 5


 185              	_ZN9ThreadABI8pushregsEv:
 186              	.LFB14:
  48:src/ThreadABI.cpp **** 
  49:src/ThreadABI.cpp **** void ThreadABI::pushregs() {
 187              		.loc 1 49 28 is_stmt 1
 188              		.cfi_startproc
 189 0090 130101FF 		addi	sp,sp,-16
 190              		.cfi_def_cfa_offset 16
 191 0094 23348100 		sd	s0,8(sp)
 192              		.cfi_offset 8, -8
 193 0098 13040101 		addi	s0,sp,16
 194              		.cfi_def_cfa 8, 0
  50:src/ThreadABI.cpp ****     asm volatile("addi sp, sp, -256");
 195              		.loc 1 50 5
 196              		.loc 1 50 38 is_stmt 0
 197              	#APP
 198              	# 50 "src/ThreadABI.cpp" 1
  51              	    asm volatile("sd x3, 0x18(sp)");
 199              		addi sp, sp, -256
 200              	# 0 "" 2
 201              		.loc 1 51 5 is_stmt 1
 202              		.loc 1 51 36 is_stmt 0
 203              	# 51 "src/ThreadABI.cpp" 1
  52              	    asm volatile("sd x4, 0x20(sp)");
 204              		sd x3, 0x18(sp)
 205              	# 0 "" 2
 206              		.loc 1 52 5 is_stmt 1
 207              		.loc 1 52 36 is_stmt 0
 208              	# 52 "src/ThreadABI.cpp" 1
  53              	    asm volatile("sd x5, 0x28(sp)");
 209              		sd x4, 0x20(sp)
 210              	# 0 "" 2
 211              		.loc 1 53 5 is_stmt 1
 212              		.loc 1 53 36 is_stmt 0
 213              	# 53 "src/ThreadABI.cpp" 1
  54              	    asm volatile("sd x6, 0x30(sp)");
 214              		sd x5, 0x28(sp)
 215              	# 0 "" 2
 216              		.loc 1 54 5 is_stmt 1
 217              		.loc 1 54 36 is_stmt 0
 218              	# 54 "src/ThreadABI.cpp" 1
  55              	    asm volatile("sd x7, 0x38(sp)");
 219              		sd x6, 0x30(sp)
 220              	# 0 "" 2
 221              		.loc 1 55 5 is_stmt 1
 222              		.loc 1 55 36 is_stmt 0
 223              	# 55 "src/ThreadABI.cpp" 1
  56              	    asm volatile("sd x8, 0x40(sp)");
 224              		sd x7, 0x38(sp)
 225              	# 0 "" 2
 226              		.loc 1 56 5 is_stmt 1
 227              		.loc 1 56 36 is_stmt 0
 228              	# 56 "src/ThreadABI.cpp" 1
  57              	    asm volatile("sd x9, 0x48(sp)");
 229              		sd x8, 0x40(sp)
 230              	# 0 "" 2
 231              		.loc 1 57 5 is_stmt 1
GAS LISTING /tmp/ccsErYNu.s 			page 6


 232              		.loc 1 57 36 is_stmt 0
 233              	# 57 "src/ThreadABI.cpp" 1
  58              	    asm volatile("sd x10, 0x50(sp)");
 234              		sd x9, 0x48(sp)
 235              	# 0 "" 2
 236              		.loc 1 58 5 is_stmt 1
 237              		.loc 1 58 37 is_stmt 0
 238              	# 58 "src/ThreadABI.cpp" 1
  59              	    asm volatile("sd x11, 0x58(sp)");
 239              		sd x10, 0x50(sp)
 240              	# 0 "" 2
 241              		.loc 1 59 5 is_stmt 1
 242              		.loc 1 59 37 is_stmt 0
 243              	# 59 "src/ThreadABI.cpp" 1
  60              	    asm volatile("sd x12, 0x60(sp)");
 244              		sd x11, 0x58(sp)
 245              	# 0 "" 2
 246              		.loc 1 60 5 is_stmt 1
 247              		.loc 1 60 37 is_stmt 0
 248              	# 60 "src/ThreadABI.cpp" 1
  61              	    asm volatile("sd x13, 0x68(sp)");
 249              		sd x12, 0x60(sp)
 250              	# 0 "" 2
 251              		.loc 1 61 5 is_stmt 1
 252              		.loc 1 61 37 is_stmt 0
 253              	# 61 "src/ThreadABI.cpp" 1
  62              	    asm volatile("sd x14, 0x70(sp)");
 254              		sd x13, 0x68(sp)
 255              	# 0 "" 2
 256              		.loc 1 62 5 is_stmt 1
 257              		.loc 1 62 37 is_stmt 0
 258              	# 62 "src/ThreadABI.cpp" 1
  63              	    asm volatile("sd x15, 0x78(sp)");
 259              		sd x14, 0x70(sp)
 260              	# 0 "" 2
 261              		.loc 1 63 5 is_stmt 1
 262              		.loc 1 63 37 is_stmt 0
 263              	# 63 "src/ThreadABI.cpp" 1
  64              	    asm volatile("sd x16, 0x80(sp)");
 264              		sd x15, 0x78(sp)
 265              	# 0 "" 2
 266              		.loc 1 64 5 is_stmt 1
 267              		.loc 1 64 37 is_stmt 0
 268              	# 64 "src/ThreadABI.cpp" 1
  65              	    asm volatile("sd x17, 0x88(sp)");
 269              		sd x16, 0x80(sp)
 270              	# 0 "" 2
 271              		.loc 1 65 5 is_stmt 1
 272              		.loc 1 65 37 is_stmt 0
 273              	# 65 "src/ThreadABI.cpp" 1
  66              	    asm volatile("sd x18, 0x90(sp)");
 274              		sd x17, 0x88(sp)
 275              	# 0 "" 2
 276              		.loc 1 66 5 is_stmt 1
 277              		.loc 1 66 37 is_stmt 0
 278              	# 66 "src/ThreadABI.cpp" 1
  67              	    asm volatile("sd x19, 0x98(sp)");
GAS LISTING /tmp/ccsErYNu.s 			page 7


 279              		sd x18, 0x90(sp)
 280              	# 0 "" 2
 281              		.loc 1 67 5 is_stmt 1
 282              		.loc 1 67 37 is_stmt 0
 283              	# 67 "src/ThreadABI.cpp" 1
  68              	    asm volatile("sd x20, 0xa0(sp)");
 284              		sd x19, 0x98(sp)
 285              	# 0 "" 2
 286              		.loc 1 68 5 is_stmt 1
 287              		.loc 1 68 37 is_stmt 0
 288              	# 68 "src/ThreadABI.cpp" 1
  69              	    asm volatile("sd x21, 0xa8(sp)");
 289              		sd x20, 0xa0(sp)
 290              	# 0 "" 2
 291              		.loc 1 69 5 is_stmt 1
 292              		.loc 1 69 37 is_stmt 0
 293              	# 69 "src/ThreadABI.cpp" 1
  70              	    asm volatile("sd x22, 0xb0(sp)");
 294              		sd x21, 0xa8(sp)
 295              	# 0 "" 2
 296              		.loc 1 70 5 is_stmt 1
 297              		.loc 1 70 37 is_stmt 0
 298              	# 70 "src/ThreadABI.cpp" 1
  71              	    asm volatile("sd x23, 0xb8(sp)");
 299              		sd x22, 0xb0(sp)
 300              	# 0 "" 2
 301              		.loc 1 71 5 is_stmt 1
 302              		.loc 1 71 37 is_stmt 0
 303              	# 71 "src/ThreadABI.cpp" 1
  72              	    asm volatile("sd x24, 0xc0(sp)");
 304              		sd x23, 0xb8(sp)
 305              	# 0 "" 2
 306              		.loc 1 72 5 is_stmt 1
 307              		.loc 1 72 37 is_stmt 0
 308              	# 72 "src/ThreadABI.cpp" 1
  73              	    asm volatile("sd x25, 0xc8(sp)");
 309              		sd x24, 0xc0(sp)
 310              	# 0 "" 2
 311              		.loc 1 73 5 is_stmt 1
 312              		.loc 1 73 37 is_stmt 0
 313              	# 73 "src/ThreadABI.cpp" 1
  74              	    asm volatile("sd x26, 0xd0(sp)");
 314              		sd x25, 0xc8(sp)
 315              	# 0 "" 2
 316              		.loc 1 74 5 is_stmt 1
 317              		.loc 1 74 37 is_stmt 0
 318              	# 74 "src/ThreadABI.cpp" 1
  75              	    asm volatile("sd x27, 0xd8(sp)");
 319              		sd x26, 0xd0(sp)
 320              	# 0 "" 2
 321              		.loc 1 75 5 is_stmt 1
 322              		.loc 1 75 37 is_stmt 0
 323              	# 75 "src/ThreadABI.cpp" 1
  76              	    asm volatile("sd x28, 0xe0(sp)");
 324              		sd x27, 0xd8(sp)
 325              	# 0 "" 2
 326              		.loc 1 76 5 is_stmt 1
GAS LISTING /tmp/ccsErYNu.s 			page 8


 327              		.loc 1 76 37 is_stmt 0
 328              	# 76 "src/ThreadABI.cpp" 1
  77              	    asm volatile("sd x29, 0xe8(sp)");
 329              		sd x28, 0xe0(sp)
 330              	# 0 "" 2
 331              		.loc 1 77 5 is_stmt 1
 332              		.loc 1 77 37 is_stmt 0
 333              	# 77 "src/ThreadABI.cpp" 1
  78              	    asm volatile("sd x30, 0xf0(sp)");
 334              		sd x29, 0xe8(sp)
 335              	# 0 "" 2
 336              		.loc 1 78 5 is_stmt 1
 337              		.loc 1 78 37 is_stmt 0
 338              	# 78 "src/ThreadABI.cpp" 1
  79              	    asm volatile("sd x31, 0xf8(sp)");
 339              		sd x30, 0xf0(sp)
 340              	# 0 "" 2
 341              		.loc 1 79 5 is_stmt 1
 342              		.loc 1 79 37 is_stmt 0
 343              	# 79 "src/ThreadABI.cpp" 1
  80              	}
 344              		sd x31, 0xf8(sp)
 345              	# 0 "" 2
 346              		.loc 1 80 1
 347              	#NO_APP
 348 0114 03348100 		ld	s0,8(sp)
 349              		.cfi_restore 8
 350              		.cfi_def_cfa 2, 16
 351 0118 13010101 		addi	sp,sp,16
 352              		.cfi_def_cfa_offset 0
 353 011c 67800000 		jr	ra
 354              		.cfi_endproc
 355              	.LFE14:
 357              		.align	2
 358              		.globl	_ZN9ThreadABI8dispatchEv
 360              	_ZN9ThreadABI8dispatchEv:
 361              	.LFB16:
  81:src/ThreadABI.cpp **** 
  82:src/ThreadABI.cpp **** 
  83:src/ThreadABI.cpp **** 
  84:src/ThreadABI.cpp **** void ThreadABI::yield()
  85:src/ThreadABI.cpp **** {
  86:src/ThreadABI.cpp ****     // Push all registers
  87:src/ThreadABI.cpp ****     pushregs();
  88:src/ThreadABI.cpp **** 
  89:src/ThreadABI.cpp ****     // Switch context as suitable
  90:src/ThreadABI.cpp ****     dispatch();
  91:src/ThreadABI.cpp **** 
  92:src/ThreadABI.cpp ****     popregs();
  93:src/ThreadABI.cpp **** 
  94:src/ThreadABI.cpp **** 
  95:src/ThreadABI.cpp **** }
  96:src/ThreadABI.cpp **** 
  97:src/ThreadABI.cpp **** void ThreadABI::dispatch()
  98:src/ThreadABI.cpp **** {
 362              		.loc 1 98 1 is_stmt 1
 363              		.cfi_startproc
GAS LISTING /tmp/ccsErYNu.s 			page 9


 364 0120 130101FE 		addi	sp,sp,-32
 365              		.cfi_def_cfa_offset 32
 366 0124 233C1100 		sd	ra,24(sp)
 367 0128 23388100 		sd	s0,16(sp)
 368 012c 23349100 		sd	s1,8(sp)
 369 0130 23302101 		sd	s2,0(sp)
 370              		.cfi_offset 1, -8
 371              		.cfi_offset 8, -16
 372              		.cfi_offset 9, -24
 373              		.cfi_offset 18, -32
 374 0134 13040102 		addi	s0,sp,32
 375              		.cfi_def_cfa 8, 0
  99:src/ThreadABI.cpp ****     ThreadABI *old = running;
 376              		.loc 1 99 5
 377              		.loc 1 99 16 is_stmt 0
 378 0138 97040000 		ld	s1,.LANCHOR0
 378      83B40400 
 379              	.LVL0:
 100:src/ThreadABI.cpp ****     if (old->state!=ThreadABI::FINISHED ) {
 380              		.loc 1 100 5 is_stmt 1
 381              		.loc 1 100 14 is_stmt 0
 382 0140 83A7C400 		lw	a5,12(s1)
 383              		.loc 1 100 5
 384 0144 13074000 		li	a4,4
 385 0148 638AE700 		beq	a5,a4,.L6
 101:src/ThreadABI.cpp ****         if(old->state!=ThreadABI::BLOCKED)
 386              		.loc 1 101 9 is_stmt 1
 387 014c 13073000 		li	a4,3
 388 0150 6386E700 		beq	a5,a4,.L6
 102:src/ThreadABI.cpp ****             if(old->state!=ThreadABI::SLEEP)
 389              		.loc 1 102 13
 390 0154 13072000 		li	a4,2
 391 0158 6398E704 		bne	a5,a4,.L9
 392              	.L6:
 103:src/ThreadABI.cpp ****             SchedulerABI::getInstanceScheduler().put(old); }
 104:src/ThreadABI.cpp **** 
 105:src/ThreadABI.cpp ****     running = SchedulerABI::getInstanceScheduler().get();
 393              		.loc 1 105 5
 394              		.loc 1 105 50 is_stmt 0
 395 015c 97000000 		call	_ZN12SchedulerABI20getInstanceSchedulerEv@plt
 395      E7800000 
 396              	.LVL1:
 397              		.loc 1 105 55
 398 0164 97000000 		call	_ZN12SchedulerABI3getEv@plt
 398      E7800000 
 399              	.LVL2:
 400              		.loc 1 105 13
 401 016c 97070000 		sd	a0,.LANCHOR0,a5
 401      23B0A700 
 106:src/ThreadABI.cpp **** 
 107:src/ThreadABI.cpp ****     ThreadABI::contextswitch(&old->context, &running->context);
 402              		.loc 1 107 5 is_stmt 1
 403              		.loc 1 107 29 is_stmt 0
 404 0174 93050502 		addi	a1,a0,32
 405 0178 13850402 		addi	a0,s1,32
 406 017c 97000000 		call	_ZN9ThreadABI13contextswitchEPNS_7ContextES1_@plt
 406      E7800000 
GAS LISTING /tmp/ccsErYNu.s 			page 10


 407              	.LVL3:
 108:src/ThreadABI.cpp ****     if(old->getState()==ThreadABI::FINISHED){
 408              		.loc 1 108 5 is_stmt 1
 409              	.LBB11:
 410              	.LBB12:
 411              	.LBB13:
 412              		.file 2 "src/../h/ThreadABI.hpp"
   1:src/../h/ThreadABI.hpp **** ////
   2:src/../h/ThreadABI.hpp **** //// Created by os on 5/22/22.
   3:src/../h/ThreadABI.hpp **** ////
   4:src/../h/ThreadABI.hpp **** //
   5:src/../h/ThreadABI.hpp **** #ifndef thread_abi
   6:src/../h/ThreadABI.hpp **** #define thread_abi
   7:src/../h/ThreadABI.hpp **** #include "../lib/hw.h"
   8:src/../h/ThreadABI.hpp **** #include "definefile.hpp"
   9:src/../h/ThreadABI.hpp **** #include "SchedulerABI.hpp"
  10:src/../h/ThreadABI.hpp **** 
  11:src/../h/ThreadABI.hpp **** class ThreadABI{
  12:src/../h/ThreadABI.hpp **** public:
  13:src/../h/ThreadABI.hpp ****     MEM_ALLOC;
  14:src/../h/ThreadABI.hpp **** 
  15:src/../h/ThreadABI.hpp ****     static ThreadABI *idle;
  16:src/../h/ThreadABI.hpp ****     static  ThreadABI *main;
  17:src/../h/ThreadABI.hpp ****     ThreadABI()=default;
  18:src/../h/ThreadABI.hpp **** 
  19:src/../h/ThreadABI.hpp **** 
  20:src/../h/ThreadABI.hpp ****     static void pushregs();
  21:src/../h/ThreadABI.hpp ****     static void popregs();
  22:src/../h/ThreadABI.hpp **** 
  23:src/../h/ThreadABI.hpp ****     friend class SchedulerABI;
  24:src/../h/ThreadABI.hpp ****     ThreadABI *next= nullptr;
  25:src/../h/ThreadABI.hpp **** 
  26:src/../h/ThreadABI.hpp ****     enum State{
  27:src/../h/ThreadABI.hpp ****         CREATED,READY,SLEEP,BLOCKED,FINISHED
  28:src/../h/ThreadABI.hpp ****     };
  29:src/../h/ThreadABI.hpp **** 
  30:src/../h/ThreadABI.hpp ****    static int thread_create (
  31:src/../h/ThreadABI.hpp ****             ThreadABI** handle,
  32:src/../h/ThreadABI.hpp ****             void(*start_routine)(void*),
  33:src/../h/ThreadABI.hpp ****             void* arg,
  34:src/../h/ThreadABI.hpp ****             void* stack_space
  35:src/../h/ThreadABI.hpp ****     );
  36:src/../h/ThreadABI.hpp ****     ~ThreadABI() =default;
  37:src/../h/ThreadABI.hpp ****     ThreadABI(const ThreadABI&)=delete;
  38:src/../h/ThreadABI.hpp ****     ThreadABI( ThreadABI&&)=delete;
  39:src/../h/ThreadABI.hpp ****     ThreadABI operator=(const ThreadABI&)=delete;
  40:src/../h/ThreadABI.hpp ****     ThreadABI operator=( ThreadABI&&)=delete;
  41:src/../h/ThreadABI.hpp **** 
  42:src/../h/ThreadABI.hpp ****      int timeSliceCounterDecrement(){return --timeSliceCounter;}
  43:src/../h/ThreadABI.hpp **** 
  44:src/../h/ThreadABI.hpp **** 
  45:src/../h/ThreadABI.hpp **** 
  46:src/../h/ThreadABI.hpp ****      void timeSliceCounterSet(){timeSliceCounter=DEFAULT_TIME_SLICE;}
  47:src/../h/ThreadABI.hpp ****      bool timeSliceEnd(){ return 0==timeSliceCounter; }
  48:src/../h/ThreadABI.hpp **** 
  49:src/../h/ThreadABI.hpp ****     void setState(State value) { state = value; }
  50:src/../h/ThreadABI.hpp ****     State getState() const { return state; }
GAS LISTING /tmp/ccsErYNu.s 			page 11


 413              		.loc 2 50 30
 414              		.loc 2 50 37 is_stmt 0
 415 0184 03A7C400 		lw	a4,12(s1)
 416              	.LVL4:
 417              	.LBE13:
 418              	.LBE12:
 419              		.loc 1 108 5
 420 0188 93074000 		li	a5,4
 421 018c 630AF702 		beq	a4,a5,.L10
 422              	.L5:
 423              	.LBE11:
 109:src/ThreadABI.cpp ****         void * stack=old->stack;
 110:src/ThreadABI.cpp ****         MemoryAllocator::getInstance().MemoryFree(old);
 111:src/ThreadABI.cpp ****         if(stack!=nullptr)
 112:src/ThreadABI.cpp ****         MemoryAllocator::getInstance().MemoryFree(stack);
 113:src/ThreadABI.cpp ****     }
 114:src/ThreadABI.cpp **** 
 115:src/ThreadABI.cpp **** }
 424              		.loc 1 115 1
 425 0190 83308101 		ld	ra,24(sp)
 426              		.cfi_remember_state
 427              		.cfi_restore 1
 428 0194 03340101 		ld	s0,16(sp)
 429              		.cfi_restore 8
 430              		.cfi_def_cfa 2, 32
 431 0198 83348100 		ld	s1,8(sp)
 432              		.cfi_restore 9
 433              	.LVL5:
 434 019c 03390100 		ld	s2,0(sp)
 435              		.cfi_restore 18
 436 01a0 13010102 		addi	sp,sp,32
 437              		.cfi_def_cfa_offset 0
 438 01a4 67800000 		jr	ra
 439              	.LVL6:
 440              	.L9:
 441              		.cfi_restore_state
 103:src/ThreadABI.cpp **** 
 442              		.loc 1 103 13 is_stmt 1
 103:src/ThreadABI.cpp **** 
 443              		.loc 1 103 48 is_stmt 0
 444 01a8 97000000 		call	_ZN12SchedulerABI20getInstanceSchedulerEv@plt
 444      E7800000 
 445              	.LVL7:
 103:src/ThreadABI.cpp **** 
 446              		.loc 1 103 53
 447 01b0 93850400 		mv	a1,s1
 448 01b4 97000000 		call	_ZN12SchedulerABI3putEP9ThreadABI@plt
 448      E7800000 
 449              	.LVL8:
 450 01bc 6FF01FFA 		j	.L6
 451              	.L10:
 452              	.LBB15:
 453              	.LBB14:
 109:src/ThreadABI.cpp ****         void * stack=old->stack;
 454              		.loc 1 109 9 is_stmt 1
 109:src/ThreadABI.cpp ****         void * stack=old->stack;
 455              		.loc 1 109 16 is_stmt 0
GAS LISTING /tmp/ccsErYNu.s 			page 12


 456 01c0 03B98401 		ld	s2,24(s1)
 457              	.LVL9:
 110:src/ThreadABI.cpp ****         if(stack!=nullptr)
 458              		.loc 1 110 9 is_stmt 1
 110:src/ThreadABI.cpp ****         if(stack!=nullptr)
 459              		.loc 1 110 38 is_stmt 0
 460 01c4 97000000 		call	_ZN15MemoryAllocator11getInstanceEv@plt
 460      E7800000 
 461              	.LVL10:
 110:src/ThreadABI.cpp ****         if(stack!=nullptr)
 462              		.loc 1 110 50
 463 01cc 93850400 		mv	a1,s1
 464 01d0 97000000 		call	_ZN15MemoryAllocator10MemoryFreeEPv@plt
 464      E7800000 
 465              	.LVL11:
 111:src/ThreadABI.cpp ****         MemoryAllocator::getInstance().MemoryFree(stack);
 466              		.loc 1 111 9 is_stmt 1
 467 01d8 E30C09FA 		beqz	s2,.L5
 112:src/ThreadABI.cpp ****     }
 468              		.loc 1 112 9
 112:src/ThreadABI.cpp ****     }
 469              		.loc 1 112 38 is_stmt 0
 470 01dc 97000000 		call	_ZN15MemoryAllocator11getInstanceEv@plt
 470      E7800000 
 471              	.LVL12:
 112:src/ThreadABI.cpp ****     }
 472              		.loc 1 112 50
 473 01e4 93050900 		mv	a1,s2
 474 01e8 97000000 		call	_ZN15MemoryAllocator10MemoryFreeEPv@plt
 474      E7800000 
 475              	.LVL13:
 476              	.LBE14:
 477              	.LBE15:
 478              		.loc 1 115 1
 479 01f0 6FF01FFA 		j	.L5
 480              		.cfi_endproc
 481              	.LFE16:
 483              		.align	2
 484              		.globl	_ZN9ThreadABI5yieldEv
 486              	_ZN9ThreadABI5yieldEv:
 487              	.LFB15:
  85:src/ThreadABI.cpp ****     // Push all registers
 488              		.loc 1 85 1 is_stmt 1
 489              		.cfi_startproc
 490 01f4 130101FF 		addi	sp,sp,-16
 491              		.cfi_def_cfa_offset 16
 492 01f8 23341100 		sd	ra,8(sp)
 493 01fc 23308100 		sd	s0,0(sp)
 494              		.cfi_offset 1, -8
 495              		.cfi_offset 8, -16
 496 0200 13040101 		addi	s0,sp,16
 497              		.cfi_def_cfa 8, 0
  87:src/ThreadABI.cpp **** 
 498              		.loc 1 87 5
  87:src/ThreadABI.cpp **** 
 499              		.loc 1 87 13 is_stmt 0
 500 0204 97000000 		call	_ZN9ThreadABI8pushregsEv
GAS LISTING /tmp/ccsErYNu.s 			page 13


 500      E7800000 
 501              	.LVL14:
  90:src/ThreadABI.cpp **** 
 502              		.loc 1 90 5 is_stmt 1
  90:src/ThreadABI.cpp **** 
 503              		.loc 1 90 13 is_stmt 0
 504 020c 97000000 		call	_ZN9ThreadABI8dispatchEv
 504      E7800000 
 505              	.LVL15:
  92:src/ThreadABI.cpp **** 
 506              		.loc 1 92 5 is_stmt 1
  92:src/ThreadABI.cpp **** 
 507              		.loc 1 92 12 is_stmt 0
 508 0214 97000000 		call	_ZN9ThreadABI7popregsEv
 508      E7800000 
 509              	.LVL16:
  95:src/ThreadABI.cpp **** 
 510              		.loc 1 95 1
 511 021c 83308100 		ld	ra,8(sp)
 512              		.cfi_restore 1
 513 0220 03340100 		ld	s0,0(sp)
 514              		.cfi_restore 8
 515              		.cfi_def_cfa 2, 16
 516 0224 13010101 		addi	sp,sp,16
 517              		.cfi_def_cfa_offset 0
 518 0228 67800000 		jr	ra
 519              		.cfi_endproc
 520              	.LFE15:
 522              		.align	2
 523              		.globl	_ZN9ThreadABI13threadWrapperEv
 525              	_ZN9ThreadABI13threadWrapperEv:
 526              	.LFB18:
 116:src/ThreadABI.cpp **** int ThreadABI::thread_create(ThreadABI **handle, void (*start_routine)(void *), void *arg, void *st
 117:src/ThreadABI.cpp ****     if(stack_space== nullptr)return -1;
 118:src/ThreadABI.cpp **** 
 119:src/ThreadABI.cpp ****     *handle=new ThreadABI(start_routine,arg);
 120:src/ThreadABI.cpp ****     if(*handle== nullptr)return  -1;
 121:src/ThreadABI.cpp ****     (*handle)->errorsem=false;
 122:src/ThreadABI.cpp ****     //pri prvom izvrsavanju krece se od adrese threadwrapper
 123:src/ThreadABI.cpp ****     (*handle)->context.ra=(uint64)&threadWrapper;
 124:src/ThreadABI.cpp ****     (*handle)->context.sp=(uint64)stack_space+DEFAULT_STACK_SIZE;
 125:src/ThreadABI.cpp ****     (*handle)->stack=stack_space;
 126:src/ThreadABI.cpp ****     return 0;
 127:src/ThreadABI.cpp **** }
 128:src/ThreadABI.cpp **** 
 129:src/ThreadABI.cpp **** 
 130:src/ThreadABI.cpp **** void ThreadABI::threadWrapper() {
 527              		.loc 1 130 33 is_stmt 1
 528              		.cfi_startproc
 529 022c 130101FE 		addi	sp,sp,-32
 530              		.cfi_def_cfa_offset 32
 531 0230 233C1100 		sd	ra,24(sp)
 532 0234 23388100 		sd	s0,16(sp)
 533 0238 23349100 		sd	s1,8(sp)
 534              		.cfi_offset 1, -8
 535              		.cfi_offset 8, -16
 536              		.cfi_offset 9, -24
GAS LISTING /tmp/ccsErYNu.s 			page 14


 537 023c 13040102 		addi	s0,sp,32
 538              		.cfi_def_cfa 8, 0
 131:src/ThreadABI.cpp ****     popSppSpie();
 539              		.loc 1 131 5
 540              		.loc 1 131 15 is_stmt 0
 541 0240 97000000 		call	_ZN9ThreadABI10popSppSpieEv@plt
 541      E7800000 
 542              	.LVL17:
 132:src/ThreadABI.cpp ****     ThreadABI::running->body(ThreadABI::running->arg);
 543              		.loc 1 132 5 is_stmt 1
 544              		.loc 1 132 25 is_stmt 0
 545 0248 97040000 		lla	s1,.LANCHOR0
 545      93840400 
 546 0250 83B70400 		ld	a5,0(s1)
 547 0254 03B70701 		ld	a4,16(a5)
 548              		.loc 1 132 29
 549 0258 03B50703 		ld	a0,48(a5)
 550 025c E7000700 		jalr	a4
 551              	.LVL18:
 133:src/ThreadABI.cpp ****     ThreadABI::running->state=ThreadABI::FINISHED;
 552              		.loc 1 133 5 is_stmt 1
 553              		.loc 1 133 25 is_stmt 0
 554 0260 83B70400 		ld	a5,0(s1)
 555              		.loc 1 133 30
 556 0264 13074000 		li	a4,4
 557 0268 23A6E700 		sw	a4,12(a5)
 134:src/ThreadABI.cpp ****     yield();
 558              		.loc 1 134 5 is_stmt 1
 559              		.loc 1 134 10 is_stmt 0
 560 026c 97000000 		call	_ZN9ThreadABI5yieldEv
 560      E7800000 
 561              	.LVL19:
 135:src/ThreadABI.cpp **** }
 562              		.loc 1 135 1
 563 0274 83308101 		ld	ra,24(sp)
 564              		.cfi_restore 1
 565 0278 03340101 		ld	s0,16(sp)
 566              		.cfi_restore 8
 567              		.cfi_def_cfa 2, 32
 568 027c 83348100 		ld	s1,8(sp)
 569              		.cfi_restore 9
 570 0280 13010102 		addi	sp,sp,32
 571              		.cfi_def_cfa_offset 0
 572 0284 67800000 		jr	ra
 573              		.cfi_endproc
 574              	.LFE18:
 576              		.align	2
 577              		.globl	_ZN9ThreadABI13thread_createEPPS_PFvPvES2_S2_
 579              	_ZN9ThreadABI13thread_createEPPS_PFvPvES2_S2_:
 580              	.LFB17:
 116:src/ThreadABI.cpp ****     if(stack_space== nullptr)return -1;
 581              		.loc 1 116 111 is_stmt 1
 582              		.cfi_startproc
 583              	.LVL20:
 117:src/ThreadABI.cpp **** 
 584              		.loc 1 117 5
 585 0288 6382060C 		beqz	a3,.L17
GAS LISTING /tmp/ccsErYNu.s 			page 15


 116:src/ThreadABI.cpp ****     if(stack_space== nullptr)return -1;
 586              		.loc 1 116 111 is_stmt 0
 587 028c 130101FD 		addi	sp,sp,-48
 588              		.cfi_def_cfa_offset 48
 589 0290 23341102 		sd	ra,40(sp)
 590 0294 23308102 		sd	s0,32(sp)
 591 0298 233C9100 		sd	s1,24(sp)
 592 029c 23382101 		sd	s2,16(sp)
 593 02a0 23343101 		sd	s3,8(sp)
 594 02a4 23304101 		sd	s4,0(sp)
 595              		.cfi_offset 1, -8
 596              		.cfi_offset 8, -16
 597              		.cfi_offset 9, -24
 598              		.cfi_offset 18, -32
 599              		.cfi_offset 19, -40
 600              		.cfi_offset 20, -48
 601 02a8 13040103 		addi	s0,sp,48
 602              		.cfi_def_cfa 8, 0
 603 02ac 93040500 		mv	s1,a0
 604 02b0 138A0500 		mv	s4,a1
 605 02b4 93090600 		mv	s3,a2
 606 02b8 13890600 		mv	s2,a3
 119:src/ThreadABI.cpp ****     if(*handle== nullptr)return  -1;
 607              		.loc 1 119 5 is_stmt 1
 608              	.LVL21:
 609              	.LBB16:
 610              	.LBB17:
  13:src/../h/ThreadABI.hpp **** 
 611              		.loc 2 13 5
  13:src/../h/ThreadABI.hpp **** 
 612              		.loc 2 13 5
  13:src/../h/ThreadABI.hpp **** 
 613              		.loc 2 13 5
  13:src/../h/ThreadABI.hpp **** 
 614              		.loc 2 13 5
  13:src/../h/ThreadABI.hpp **** 
 615              		.loc 2 13 5
  13:src/../h/ThreadABI.hpp **** 
 616              		.loc 2 13 5
  13:src/../h/ThreadABI.hpp **** 
 617              		.loc 2 13 5
 618 02bc 97000000 		call	_ZN15MemoryAllocator11getInstanceEv@plt
 618      E7800000 
 619              	.LVL22:
 620 02c4 93050008 		li	a1,128
 621 02c8 97000000 		call	_ZN15MemoryAllocator11MemoryAllocEm@plt
 621      E7800000 
 622              	.LVL23:
 623              	.LBE17:
 624              	.LBE16:
 625              	.LBB18:
 626              	.LBB19:
  51:src/../h/ThreadABI.hpp **** 
  52:src/../h/ThreadABI.hpp ****     time_t getTimeSlice() const { return DEFAULT_TIME_SLICE; }
  53:src/../h/ThreadABI.hpp **** 
  54:src/../h/ThreadABI.hpp **** 
  55:src/../h/ThreadABI.hpp ****     using Body = void (*)(void *);
GAS LISTING /tmp/ccsErYNu.s 			page 16


  56:src/../h/ThreadABI.hpp **** 
  57:src/../h/ThreadABI.hpp ****     static void dispatch();
  58:src/../h/ThreadABI.hpp **** 
  59:src/../h/ThreadABI.hpp ****     static ThreadABI *running;
  60:src/../h/ThreadABI.hpp ****     static void threadWrapper();
  61:src/../h/ThreadABI.hpp ****     static void yield();
  62:src/../h/ThreadABI.hpp ****     bool errorsem=false;
  63:src/../h/ThreadABI.hpp **** 
  64:src/../h/ThreadABI.hpp **** private:
  65:src/../h/ThreadABI.hpp ****     //restore spp i spie za threadwrappperrr
  66:src/../h/ThreadABI.hpp ****     static void popSppSpie();
  67:src/../h/ThreadABI.hpp **** 
  68:src/../h/ThreadABI.hpp **** 
  69:src/../h/ThreadABI.hpp **** 
  70:src/../h/ThreadABI.hpp **** 
  71:src/../h/ThreadABI.hpp ****     ThreadABI(void(*start_routine)(void*),
  72:src/../h/ThreadABI.hpp ****               void* args){
 627              		.loc 2 72 26 is_stmt 0
 628 02d0 23300500 		sd	zero,0(a0)
 629 02d4 23040500 		sb	zero,8(a0)
 630 02d8 23260500 		sw	zero,12(a0)
 631 02dc 233C0500 		sd	zero,24(a0)
 632 02e0 233C0502 		sd	zero,56(a0)
 633 02e4 93072000 		li	a5,2
 634 02e8 2330F504 		sd	a5,64(a0)
  73:src/../h/ThreadABI.hpp ****         body=start_routine;
 635              		.loc 2 73 9 is_stmt 1
 636              		.loc 2 73 13 is_stmt 0
 637 02ec 23384501 		sd	s4,16(a0)
  74:src/../h/ThreadABI.hpp ****         arg=args;
 638              		.loc 2 74 9 is_stmt 1
 639              		.loc 2 74 12 is_stmt 0
 640 02f0 23383503 		sd	s3,48(a0)
 641              	.LVL24:
 642              	.LBE19:
 643              	.LBE18:
 119:src/ThreadABI.cpp ****     if(*handle== nullptr)return  -1;
 644              		.loc 1 119 12
 645 02f4 23B0A400 		sd	a0,0(s1)
 120:src/ThreadABI.cpp ****     (*handle)->errorsem=false;
 646              		.loc 1 120 5 is_stmt 1
 647 02f8 630E0504 		beqz	a0,.L18
 121:src/ThreadABI.cpp ****     //pri prvom izvrsavanju krece se od adrese threadwrapper
 648              		.loc 1 121 5
 121:src/ThreadABI.cpp ****     //pri prvom izvrsavanju krece se od adrese threadwrapper
 649              		.loc 1 121 24 is_stmt 0
 650 02fc 23040500 		sb	zero,8(a0)
 123:src/ThreadABI.cpp ****     (*handle)->context.sp=(uint64)stack_space+DEFAULT_STACK_SIZE;
 651              		.loc 1 123 5 is_stmt 1
 123:src/ThreadABI.cpp ****     (*handle)->context.sp=(uint64)stack_space+DEFAULT_STACK_SIZE;
 652              		.loc 1 123 6 is_stmt 0
 653 0300 83B70400 		ld	a5,0(s1)
 123:src/ThreadABI.cpp ****     (*handle)->context.sp=(uint64)stack_space+DEFAULT_STACK_SIZE;
 654              		.loc 1 123 26
 655 0304 17070000 		lla	a4,_ZN9ThreadABI13threadWrapperEv
 655      13070700 
 656 030c 23B0E702 		sd	a4,32(a5)
GAS LISTING /tmp/ccsErYNu.s 			page 17


 124:src/ThreadABI.cpp ****     (*handle)->stack=stack_space;
 657              		.loc 1 124 5 is_stmt 1
 124:src/ThreadABI.cpp ****     (*handle)->stack=stack_space;
 658              		.loc 1 124 6 is_stmt 0
 659 0310 03B70400 		ld	a4,0(s1)
 124:src/ThreadABI.cpp ****     (*handle)->stack=stack_space;
 660              		.loc 1 124 46
 661 0314 B7170000 		li	a5,4096
 662 0318 B307F900 		add	a5,s2,a5
 124:src/ThreadABI.cpp ****     (*handle)->stack=stack_space;
 663              		.loc 1 124 26
 664 031c 2334F702 		sd	a5,40(a4)
 125:src/ThreadABI.cpp ****     return 0;
 665              		.loc 1 125 5 is_stmt 1
 125:src/ThreadABI.cpp ****     return 0;
 666              		.loc 1 125 6 is_stmt 0
 667 0320 83B70400 		ld	a5,0(s1)
 125:src/ThreadABI.cpp ****     return 0;
 668              		.loc 1 125 21
 669 0324 23BC2701 		sd	s2,24(a5)
 126:src/ThreadABI.cpp **** }
 670              		.loc 1 126 5 is_stmt 1
 126:src/ThreadABI.cpp **** }
 671              		.loc 1 126 12 is_stmt 0
 672 0328 13050000 		li	a0,0
 673              	.L16:
 127:src/ThreadABI.cpp **** 
 674              		.loc 1 127 1
 675 032c 83308102 		ld	ra,40(sp)
 676              		.cfi_restore 1
 677 0330 03340102 		ld	s0,32(sp)
 678              		.cfi_restore 8
 679              		.cfi_def_cfa 2, 48
 680 0334 83348101 		ld	s1,24(sp)
 681              		.cfi_restore 9
 682              	.LVL25:
 683 0338 03390101 		ld	s2,16(sp)
 684              		.cfi_restore 18
 685              	.LVL26:
 686 033c 83398100 		ld	s3,8(sp)
 687              		.cfi_restore 19
 688              	.LVL27:
 689 0340 033A0100 		ld	s4,0(sp)
 690              		.cfi_restore 20
 691              	.LVL28:
 692 0344 13010103 		addi	sp,sp,48
 693              		.cfi_def_cfa_offset 0
 694 0348 67800000 		jr	ra
 695              	.LVL29:
 696              	.L17:
 117:src/ThreadABI.cpp **** 
 697              		.loc 1 117 38
 698 034c 1305F0FF 		li	a0,-1
 699              	.LVL30:
 127:src/ThreadABI.cpp **** 
 700              		.loc 1 127 1
 701 0350 67800000 		ret
GAS LISTING /tmp/ccsErYNu.s 			page 18


 702              	.LVL31:
 703              	.L18:
 704              		.cfi_def_cfa_register 8
 705              		.cfi_offset 1, -8
 706              		.cfi_offset 8, -16
 707              		.cfi_offset 9, -24
 708              		.cfi_offset 18, -32
 709              		.cfi_offset 19, -40
 710              		.cfi_offset 20, -48
 120:src/ThreadABI.cpp ****     (*handle)->errorsem=false;
 711              		.loc 1 120 35
 712 0354 1305F0FF 		li	a0,-1
 713 0358 6FF05FFD 		j	.L16
 714              		.cfi_endproc
 715              	.LFE17:
 717              		.align	2
 718              		.globl	_ZNK9ThreadABI10getContextEv
 720              	_ZNK9ThreadABI10getContextEv:
 721              	.LFB19:
 136:src/ThreadABI.cpp **** 
 137:src/ThreadABI.cpp **** const ThreadABI::Context &ThreadABI::getContext() const {
 722              		.loc 1 137 57 is_stmt 1
 723              		.cfi_startproc
 724              	.LVL32:
 725 035c 130101FF 		addi	sp,sp,-16
 726              		.cfi_def_cfa_offset 16
 727 0360 23348100 		sd	s0,8(sp)
 728              		.cfi_offset 8, -8
 729 0364 13040101 		addi	s0,sp,16
 730              		.cfi_def_cfa 8, 0
 138:src/ThreadABI.cpp ****     return context;
 731              		.loc 1 138 5
 139:src/ThreadABI.cpp **** }
 732              		.loc 1 139 1 is_stmt 0
 733 0368 13050502 		addi	a0,a0,32
 734              	.LVL33:
 735 036c 03348100 		ld	s0,8(sp)
 736              		.cfi_restore 8
 737              		.cfi_def_cfa 2, 16
 738 0370 13010101 		addi	sp,sp,16
 739              		.cfi_def_cfa_offset 0
 740 0374 67800000 		jr	ra
 741              		.cfi_endproc
 742              	.LFE19:
 744              		.align	2
 745              		.globl	_ZNK9ThreadABI8getStackEv
 747              	_ZNK9ThreadABI8getStackEv:
 748              	.LFB20:
 140:src/ThreadABI.cpp **** 
 141:src/ThreadABI.cpp **** void *ThreadABI::getStack() const {
 749              		.loc 1 141 35 is_stmt 1
 750              		.cfi_startproc
 751              	.LVL34:
 752 0378 130101FF 		addi	sp,sp,-16
 753              		.cfi_def_cfa_offset 16
 754 037c 23348100 		sd	s0,8(sp)
 755              		.cfi_offset 8, -8
GAS LISTING /tmp/ccsErYNu.s 			page 19


 756 0380 13040101 		addi	s0,sp,16
 757              		.cfi_def_cfa 8, 0
 142:src/ThreadABI.cpp ****     return stack;
 758              		.loc 1 142 5
 143:src/ThreadABI.cpp **** }
 759              		.loc 1 143 1 is_stmt 0
 760 0384 03358501 		ld	a0,24(a0)
 761              	.LVL35:
 762 0388 03348100 		ld	s0,8(sp)
 763              		.cfi_restore 8
 764              		.cfi_def_cfa 2, 16
 765 038c 13010101 		addi	sp,sp,16
 766              		.cfi_def_cfa_offset 0
 767 0390 67800000 		jr	ra
 768              		.cfi_endproc
 769              	.LFE20:
 771              		.align	2
 772              		.globl	_ZN9ThreadABI8setStackEPv
 774              	_ZN9ThreadABI8setStackEPv:
 775              	.LFB21:
 144:src/ThreadABI.cpp **** 
 145:src/ThreadABI.cpp **** void ThreadABI::setStack(void *stack) {
 776              		.loc 1 145 39 is_stmt 1
 777              		.cfi_startproc
 778              	.LVL36:
 779 0394 130101FF 		addi	sp,sp,-16
 780              		.cfi_def_cfa_offset 16
 781 0398 23348100 		sd	s0,8(sp)
 782              		.cfi_offset 8, -8
 783 039c 13040101 		addi	s0,sp,16
 784              		.cfi_def_cfa 8, 0
 146:src/ThreadABI.cpp ****     ThreadABI::stack = stack;
 785              		.loc 1 146 5
 786              		.loc 1 146 22 is_stmt 0
 787 03a0 233CB500 		sd	a1,24(a0)
 147:src/ThreadABI.cpp **** }
 788              		.loc 1 147 1
 789 03a4 03348100 		ld	s0,8(sp)
 790              		.cfi_restore 8
 791              		.cfi_def_cfa 2, 16
 792 03a8 13010101 		addi	sp,sp,16
 793              		.cfi_def_cfa_offset 0
 794 03ac 67800000 		jr	ra
 795              		.cfi_endproc
 796              	.LFE21:
 798              		.align	2
 799              		.globl	_ZNK9ThreadABI12getSleeptimeEv
 801              	_ZNK9ThreadABI12getSleeptimeEv:
 802              	.LFB22:
 148:src/ThreadABI.cpp **** 
 149:src/ThreadABI.cpp **** time_t ThreadABI::getSleeptime() const {
 803              		.loc 1 149 40 is_stmt 1
 804              		.cfi_startproc
 805              	.LVL37:
 806 03b0 130101FF 		addi	sp,sp,-16
 807              		.cfi_def_cfa_offset 16
 808 03b4 23348100 		sd	s0,8(sp)
GAS LISTING /tmp/ccsErYNu.s 			page 20


 809              		.cfi_offset 8, -8
 810 03b8 13040101 		addi	s0,sp,16
 811              		.cfi_def_cfa 8, 0
 150:src/ThreadABI.cpp ****     return sleeptime;
 812              		.loc 1 150 5
 151:src/ThreadABI.cpp **** }
 813              		.loc 1 151 1 is_stmt 0
 814 03bc 03358503 		ld	a0,56(a0)
 815              	.LVL38:
 816 03c0 03348100 		ld	s0,8(sp)
 817              		.cfi_restore 8
 818              		.cfi_def_cfa 2, 16
 819 03c4 13010101 		addi	sp,sp,16
 820              		.cfi_def_cfa_offset 0
 821 03c8 67800000 		jr	ra
 822              		.cfi_endproc
 823              	.LFE22:
 825              		.align	2
 826              		.globl	_ZN9ThreadABI14decrementsleepEv
 828              	_ZN9ThreadABI14decrementsleepEv:
 829              	.LFB23:
 152:src/ThreadABI.cpp **** 
 153:src/ThreadABI.cpp **** int ThreadABI::decrementsleep() {
 830              		.loc 1 153 33 is_stmt 1
 831              		.cfi_startproc
 832              	.LVL39:
 833 03cc 130101FF 		addi	sp,sp,-16
 834              		.cfi_def_cfa_offset 16
 835 03d0 23348100 		sd	s0,8(sp)
 836              		.cfi_offset 8, -8
 837 03d4 13040101 		addi	s0,sp,16
 838              		.cfi_def_cfa 8, 0
 154:src/ThreadABI.cpp ****     return --ThreadABI::sleeptime;
 839              		.loc 1 154 5
 840              		.loc 1 154 25 is_stmt 0
 841 03d8 83378503 		ld	a5,56(a0)
 842              		.loc 1 154 12
 843 03dc 9387F7FF 		addi	a5,a5,-1
 844              		.loc 1 154 25
 845 03e0 233CF502 		sd	a5,56(a0)
 155:src/ThreadABI.cpp **** }
 846              		.loc 1 155 1
 847 03e4 1B850700 		sext.w	a0,a5
 848              	.LVL40:
 849 03e8 03348100 		ld	s0,8(sp)
 850              		.cfi_restore 8
 851              		.cfi_def_cfa 2, 16
 852 03ec 13010101 		addi	sp,sp,16
 853              		.cfi_def_cfa_offset 0
 854 03f0 67800000 		jr	ra
 855              		.cfi_endproc
 856              	.LFE23:
 858              		.globl	_ZN9ThreadABI4idleE
 859              		.globl	_ZN9ThreadABI4mainE
 860              		.globl	_ZN9ThreadABI7runningE
 861              		.bss
 862              		.align	3
GAS LISTING /tmp/ccsErYNu.s 			page 21


 863              		.set	.LANCHOR0,. + 0
 866              	_ZN9ThreadABI7runningE:
 867 0000 00000000 		.zero	8
 867      00000000 
 870              	_ZN9ThreadABI4idleE:
 871 0008 00000000 		.zero	8
 871      00000000 
 874              	_ZN9ThreadABI4mainE:
 875 0010 00000000 		.zero	8
 875      00000000 
 876              		.text
 877              	.Letext0:
 878              		.file 3 "src/../h/../lib/hw.h"
 879              		.file 4 "src/../h/MemoryAllocator.hpp"
 880              		.file 5 "src/../h/SchedulerABI.hpp"
GAS LISTING /tmp/ccsErYNu.s 			page 22


DEFINED SYMBOLS
                            *ABS*:0000000000000000 ThreadABI.cpp
     /tmp/ccsErYNu.s:9      .text:0000000000000000 _ZN9ThreadABI7popregsEv
     /tmp/ccsErYNu.s:13     .text:0000000000000000 .L0 
     /tmp/ccsErYNu.s:14     .text:0000000000000000 .L0 
     /tmp/ccsErYNu.s:15     .text:0000000000000004 .L0 
     /tmp/ccsErYNu.s:17     .text:0000000000000008 .L0 
     /tmp/ccsErYNu.s:19     .text:000000000000000c .L0 
     /tmp/ccsErYNu.s:21     .text:000000000000000c .L0 
   src/ThreadABI.cpp:17     .text:000000000000000c .L0 
     /tmp/ccsErYNu.s:27     .text:0000000000000010 .L0 
   src/ThreadABI.cpp:18     .text:0000000000000010 .L0 
     /tmp/ccsErYNu.s:32     .text:0000000000000014 .L0 
   src/ThreadABI.cpp:19     .text:0000000000000014 .L0 
     /tmp/ccsErYNu.s:37     .text:0000000000000018 .L0 
   src/ThreadABI.cpp:20     .text:0000000000000018 .L0 
     /tmp/ccsErYNu.s:42     .text:000000000000001c .L0 
   src/ThreadABI.cpp:21     .text:000000000000001c .L0 
     /tmp/ccsErYNu.s:47     .text:0000000000000020 .L0 
   src/ThreadABI.cpp:22     .text:0000000000000020 .L0 
     /tmp/ccsErYNu.s:52     .text:0000000000000024 .L0 
   src/ThreadABI.cpp:23     .text:0000000000000024 .L0 
     /tmp/ccsErYNu.s:57     .text:0000000000000028 .L0 
   src/ThreadABI.cpp:24     .text:0000000000000028 .L0 
     /tmp/ccsErYNu.s:62     .text:000000000000002c .L0 
   src/ThreadABI.cpp:25     .text:000000000000002c .L0 
     /tmp/ccsErYNu.s:67     .text:0000000000000030 .L0 
   src/ThreadABI.cpp:26     .text:0000000000000030 .L0 
     /tmp/ccsErYNu.s:72     .text:0000000000000034 .L0 
   src/ThreadABI.cpp:27     .text:0000000000000034 .L0 
     /tmp/ccsErYNu.s:77     .text:0000000000000038 .L0 
   src/ThreadABI.cpp:28     .text:0000000000000038 .L0 
     /tmp/ccsErYNu.s:82     .text:000000000000003c .L0 
   src/ThreadABI.cpp:29     .text:000000000000003c .L0 
     /tmp/ccsErYNu.s:87     .text:0000000000000040 .L0 
   src/ThreadABI.cpp:30     .text:0000000000000040 .L0 
     /tmp/ccsErYNu.s:92     .text:0000000000000044 .L0 
   src/ThreadABI.cpp:31     .text:0000000000000044 .L0 
     /tmp/ccsErYNu.s:97     .text:0000000000000048 .L0 
   src/ThreadABI.cpp:32     .text:0000000000000048 .L0 
     /tmp/ccsErYNu.s:102    .text:000000000000004c .L0 
   src/ThreadABI.cpp:33     .text:000000000000004c .L0 
     /tmp/ccsErYNu.s:107    .text:0000000000000050 .L0 
   src/ThreadABI.cpp:34     .text:0000000000000050 .L0 
     /tmp/ccsErYNu.s:112    .text:0000000000000054 .L0 
   src/ThreadABI.cpp:35     .text:0000000000000054 .L0 
     /tmp/ccsErYNu.s:117    .text:0000000000000058 .L0 
   src/ThreadABI.cpp:36     .text:0000000000000058 .L0 
     /tmp/ccsErYNu.s:122    .text:000000000000005c .L0 
   src/ThreadABI.cpp:37     .text:000000000000005c .L0 
     /tmp/ccsErYNu.s:127    .text:0000000000000060 .L0 
   src/ThreadABI.cpp:38     .text:0000000000000060 .L0 
     /tmp/ccsErYNu.s:132    .text:0000000000000064 .L0 
   src/ThreadABI.cpp:39     .text:0000000000000064 .L0 
     /tmp/ccsErYNu.s:137    .text:0000000000000068 .L0 
   src/ThreadABI.cpp:40     .text:0000000000000068 .L0 
     /tmp/ccsErYNu.s:142    .text:000000000000006c .L0 
GAS LISTING /tmp/ccsErYNu.s 			page 23


   src/ThreadABI.cpp:41     .text:000000000000006c .L0 
     /tmp/ccsErYNu.s:147    .text:0000000000000070 .L0 
   src/ThreadABI.cpp:42     .text:0000000000000070 .L0 
     /tmp/ccsErYNu.s:152    .text:0000000000000074 .L0 
   src/ThreadABI.cpp:43     .text:0000000000000074 .L0 
     /tmp/ccsErYNu.s:157    .text:0000000000000078 .L0 
   src/ThreadABI.cpp:44     .text:0000000000000078 .L0 
     /tmp/ccsErYNu.s:162    .text:000000000000007c .L0 
   src/ThreadABI.cpp:45     .text:000000000000007c .L0 
     /tmp/ccsErYNu.s:167    .text:0000000000000080 .L0 
   src/ThreadABI.cpp:46     .text:0000000000000080 .L0 
     /tmp/ccsErYNu.s:173    .text:0000000000000084 .L0 
     /tmp/ccsErYNu.s:174    .text:0000000000000088 .L0 
     /tmp/ccsErYNu.s:175    .text:0000000000000088 .L0 
     /tmp/ccsErYNu.s:177    .text:000000000000008c .L0 
     /tmp/ccsErYNu.s:179    .text:0000000000000090 .L0 
     /tmp/ccsErYNu.s:185    .text:0000000000000090 _ZN9ThreadABI8pushregsEv
     /tmp/ccsErYNu.s:188    .text:0000000000000090 .L0 
     /tmp/ccsErYNu.s:189    .text:0000000000000090 .L0 
     /tmp/ccsErYNu.s:190    .text:0000000000000094 .L0 
     /tmp/ccsErYNu.s:192    .text:0000000000000098 .L0 
     /tmp/ccsErYNu.s:194    .text:000000000000009c .L0 
     /tmp/ccsErYNu.s:196    .text:000000000000009c .L0 
   src/ThreadABI.cpp:50     .text:000000000000009c .L0 
     /tmp/ccsErYNu.s:202    .text:00000000000000a0 .L0 
   src/ThreadABI.cpp:51     .text:00000000000000a0 .L0 
     /tmp/ccsErYNu.s:207    .text:00000000000000a4 .L0 
   src/ThreadABI.cpp:52     .text:00000000000000a4 .L0 
     /tmp/ccsErYNu.s:212    .text:00000000000000a8 .L0 
   src/ThreadABI.cpp:53     .text:00000000000000a8 .L0 
     /tmp/ccsErYNu.s:217    .text:00000000000000ac .L0 
   src/ThreadABI.cpp:54     .text:00000000000000ac .L0 
     /tmp/ccsErYNu.s:222    .text:00000000000000b0 .L0 
   src/ThreadABI.cpp:55     .text:00000000000000b0 .L0 
     /tmp/ccsErYNu.s:227    .text:00000000000000b4 .L0 
   src/ThreadABI.cpp:56     .text:00000000000000b4 .L0 
     /tmp/ccsErYNu.s:232    .text:00000000000000b8 .L0 
   src/ThreadABI.cpp:57     .text:00000000000000b8 .L0 
     /tmp/ccsErYNu.s:237    .text:00000000000000bc .L0 
   src/ThreadABI.cpp:58     .text:00000000000000bc .L0 
     /tmp/ccsErYNu.s:242    .text:00000000000000c0 .L0 
   src/ThreadABI.cpp:59     .text:00000000000000c0 .L0 
     /tmp/ccsErYNu.s:247    .text:00000000000000c4 .L0 
   src/ThreadABI.cpp:60     .text:00000000000000c4 .L0 
     /tmp/ccsErYNu.s:252    .text:00000000000000c8 .L0 
   src/ThreadABI.cpp:61     .text:00000000000000c8 .L0 
     /tmp/ccsErYNu.s:257    .text:00000000000000cc .L0 
   src/ThreadABI.cpp:62     .text:00000000000000cc .L0 
     /tmp/ccsErYNu.s:262    .text:00000000000000d0 .L0 
   src/ThreadABI.cpp:63     .text:00000000000000d0 .L0 
     /tmp/ccsErYNu.s:267    .text:00000000000000d4 .L0 
   src/ThreadABI.cpp:64     .text:00000000000000d4 .L0 
     /tmp/ccsErYNu.s:272    .text:00000000000000d8 .L0 
   src/ThreadABI.cpp:65     .text:00000000000000d8 .L0 
     /tmp/ccsErYNu.s:277    .text:00000000000000dc .L0 
   src/ThreadABI.cpp:66     .text:00000000000000dc .L0 
     /tmp/ccsErYNu.s:282    .text:00000000000000e0 .L0 
GAS LISTING /tmp/ccsErYNu.s 			page 24


   src/ThreadABI.cpp:67     .text:00000000000000e0 .L0 
     /tmp/ccsErYNu.s:287    .text:00000000000000e4 .L0 
   src/ThreadABI.cpp:68     .text:00000000000000e4 .L0 
     /tmp/ccsErYNu.s:292    .text:00000000000000e8 .L0 
   src/ThreadABI.cpp:69     .text:00000000000000e8 .L0 
     /tmp/ccsErYNu.s:297    .text:00000000000000ec .L0 
   src/ThreadABI.cpp:70     .text:00000000000000ec .L0 
     /tmp/ccsErYNu.s:302    .text:00000000000000f0 .L0 
   src/ThreadABI.cpp:71     .text:00000000000000f0 .L0 
     /tmp/ccsErYNu.s:307    .text:00000000000000f4 .L0 
   src/ThreadABI.cpp:72     .text:00000000000000f4 .L0 
     /tmp/ccsErYNu.s:312    .text:00000000000000f8 .L0 
   src/ThreadABI.cpp:73     .text:00000000000000f8 .L0 
     /tmp/ccsErYNu.s:317    .text:00000000000000fc .L0 
   src/ThreadABI.cpp:74     .text:00000000000000fc .L0 
     /tmp/ccsErYNu.s:322    .text:0000000000000100 .L0 
   src/ThreadABI.cpp:75     .text:0000000000000100 .L0 
     /tmp/ccsErYNu.s:327    .text:0000000000000104 .L0 
   src/ThreadABI.cpp:76     .text:0000000000000104 .L0 
     /tmp/ccsErYNu.s:332    .text:0000000000000108 .L0 
   src/ThreadABI.cpp:77     .text:0000000000000108 .L0 
     /tmp/ccsErYNu.s:337    .text:000000000000010c .L0 
   src/ThreadABI.cpp:78     .text:000000000000010c .L0 
     /tmp/ccsErYNu.s:342    .text:0000000000000110 .L0 
   src/ThreadABI.cpp:79     .text:0000000000000110 .L0 
     /tmp/ccsErYNu.s:348    .text:0000000000000114 .L0 
     /tmp/ccsErYNu.s:349    .text:0000000000000118 .L0 
     /tmp/ccsErYNu.s:350    .text:0000000000000118 .L0 
     /tmp/ccsErYNu.s:352    .text:000000000000011c .L0 
     /tmp/ccsErYNu.s:354    .text:0000000000000120 .L0 
     /tmp/ccsErYNu.s:360    .text:0000000000000120 _ZN9ThreadABI8dispatchEv
     /tmp/ccsErYNu.s:363    .text:0000000000000120 .L0 
     /tmp/ccsErYNu.s:364    .text:0000000000000120 .L0 
     /tmp/ccsErYNu.s:365    .text:0000000000000124 .L0 
     /tmp/ccsErYNu.s:370    .text:0000000000000134 .L0 
     /tmp/ccsErYNu.s:371    .text:0000000000000134 .L0 
     /tmp/ccsErYNu.s:372    .text:0000000000000134 .L0 
     /tmp/ccsErYNu.s:373    .text:0000000000000134 .L0 
     /tmp/ccsErYNu.s:375    .text:0000000000000138 .L0 
     /tmp/ccsErYNu.s:377    .text:0000000000000138 .L0 
     /tmp/ccsErYNu.s:378    .text:0000000000000138 .L0 
     /tmp/ccsErYNu.s:381    .text:0000000000000140 .L0 
     /tmp/ccsErYNu.s:382    .text:0000000000000140 .L0 
     /tmp/ccsErYNu.s:384    .text:0000000000000144 .L0 
     /tmp/ccsErYNu.s:387    .text:000000000000014c .L0 
     /tmp/ccsErYNu.s:390    .text:0000000000000154 .L0 
     /tmp/ccsErYNu.s:394    .text:000000000000015c .L0 
     /tmp/ccsErYNu.s:395    .text:000000000000015c .L0 
     /tmp/ccsErYNu.s:398    .text:0000000000000164 .L0 
     /tmp/ccsErYNu.s:401    .text:000000000000016c .L0 
     /tmp/ccsErYNu.s:403    .text:0000000000000174 .L0 
     /tmp/ccsErYNu.s:404    .text:0000000000000174 .L0 
     /tmp/ccsErYNu.s:413    .text:0000000000000184 .L0 
     /tmp/ccsErYNu.s:414    .text:0000000000000184 .L0 
     /tmp/ccsErYNu.s:415    .text:0000000000000184 .L0 
     /tmp/ccsErYNu.s:420    .text:0000000000000188 .L0 
     /tmp/ccsErYNu.s:425    .text:0000000000000190 .L0 
GAS LISTING /tmp/ccsErYNu.s 			page 25


     /tmp/ccsErYNu.s:426    .text:0000000000000194 .L0 
     /tmp/ccsErYNu.s:427    .text:0000000000000194 .L0 
     /tmp/ccsErYNu.s:429    .text:0000000000000198 .L0 
     /tmp/ccsErYNu.s:430    .text:0000000000000198 .L0 
     /tmp/ccsErYNu.s:432    .text:000000000000019c .L0 
     /tmp/ccsErYNu.s:435    .text:00000000000001a0 .L0 
     /tmp/ccsErYNu.s:437    .text:00000000000001a4 .L0 
     /tmp/ccsErYNu.s:441    .text:00000000000001a8 .L0 
     /tmp/ccsErYNu.s:443    .text:00000000000001a8 .L0 
     /tmp/ccsErYNu.s:444    .text:00000000000001a8 .L0 
     /tmp/ccsErYNu.s:447    .text:00000000000001b0 .L0 
     /tmp/ccsErYNu.s:455    .text:00000000000001c0 .L0 
     /tmp/ccsErYNu.s:456    .text:00000000000001c0 .L0 
     /tmp/ccsErYNu.s:459    .text:00000000000001c4 .L0 
     /tmp/ccsErYNu.s:460    .text:00000000000001c4 .L0 
     /tmp/ccsErYNu.s:463    .text:00000000000001cc .L0 
     /tmp/ccsErYNu.s:467    .text:00000000000001d8 .L0 
     /tmp/ccsErYNu.s:469    .text:00000000000001dc .L0 
     /tmp/ccsErYNu.s:470    .text:00000000000001dc .L0 
     /tmp/ccsErYNu.s:473    .text:00000000000001e4 .L0 
     /tmp/ccsErYNu.s:479    .text:00000000000001f0 .L0 
     /tmp/ccsErYNu.s:480    .text:00000000000001f4 .L0 
     /tmp/ccsErYNu.s:486    .text:00000000000001f4 _ZN9ThreadABI5yieldEv
     /tmp/ccsErYNu.s:489    .text:00000000000001f4 .L0 
     /tmp/ccsErYNu.s:490    .text:00000000000001f4 .L0 
     /tmp/ccsErYNu.s:491    .text:00000000000001f8 .L0 
     /tmp/ccsErYNu.s:494    .text:0000000000000200 .L0 
     /tmp/ccsErYNu.s:495    .text:0000000000000200 .L0 
     /tmp/ccsErYNu.s:497    .text:0000000000000204 .L0 
     /tmp/ccsErYNu.s:499    .text:0000000000000204 .L0 
     /tmp/ccsErYNu.s:500    .text:0000000000000204 .L0 
     /tmp/ccsErYNu.s:503    .text:000000000000020c .L0 
     /tmp/ccsErYNu.s:504    .text:000000000000020c .L0 
     /tmp/ccsErYNu.s:507    .text:0000000000000214 .L0 
     /tmp/ccsErYNu.s:508    .text:0000000000000214 .L0 
     /tmp/ccsErYNu.s:511    .text:000000000000021c .L0 
     /tmp/ccsErYNu.s:512    .text:0000000000000220 .L0 
     /tmp/ccsErYNu.s:514    .text:0000000000000224 .L0 
     /tmp/ccsErYNu.s:515    .text:0000000000000224 .L0 
     /tmp/ccsErYNu.s:517    .text:0000000000000228 .L0 
     /tmp/ccsErYNu.s:519    .text:000000000000022c .L0 
     /tmp/ccsErYNu.s:525    .text:000000000000022c _ZN9ThreadABI13threadWrapperEv
     /tmp/ccsErYNu.s:528    .text:000000000000022c .L0 
     /tmp/ccsErYNu.s:529    .text:000000000000022c .L0 
     /tmp/ccsErYNu.s:530    .text:0000000000000230 .L0 
     /tmp/ccsErYNu.s:534    .text:000000000000023c .L0 
     /tmp/ccsErYNu.s:535    .text:000000000000023c .L0 
     /tmp/ccsErYNu.s:536    .text:000000000000023c .L0 
     /tmp/ccsErYNu.s:538    .text:0000000000000240 .L0 
     /tmp/ccsErYNu.s:540    .text:0000000000000240 .L0 
     /tmp/ccsErYNu.s:541    .text:0000000000000240 .L0 
     /tmp/ccsErYNu.s:544    .text:0000000000000248 .L0 
     /tmp/ccsErYNu.s:545    .text:0000000000000248 .L0 
     /tmp/ccsErYNu.s:549    .text:0000000000000258 .L0 
     /tmp/ccsErYNu.s:553    .text:0000000000000260 .L0 
     /tmp/ccsErYNu.s:554    .text:0000000000000260 .L0 
     /tmp/ccsErYNu.s:556    .text:0000000000000264 .L0 
GAS LISTING /tmp/ccsErYNu.s 			page 26


     /tmp/ccsErYNu.s:559    .text:000000000000026c .L0 
     /tmp/ccsErYNu.s:560    .text:000000000000026c .L0 
     /tmp/ccsErYNu.s:563    .text:0000000000000274 .L0 
     /tmp/ccsErYNu.s:564    .text:0000000000000278 .L0 
     /tmp/ccsErYNu.s:566    .text:000000000000027c .L0 
     /tmp/ccsErYNu.s:567    .text:000000000000027c .L0 
     /tmp/ccsErYNu.s:569    .text:0000000000000280 .L0 
     /tmp/ccsErYNu.s:571    .text:0000000000000284 .L0 
     /tmp/ccsErYNu.s:573    .text:0000000000000288 .L0 
     /tmp/ccsErYNu.s:579    .text:0000000000000288 _ZN9ThreadABI13thread_createEPPS_PFvPvES2_S2_
     /tmp/ccsErYNu.s:582    .text:0000000000000288 .L0 
     /tmp/ccsErYNu.s:584    .text:0000000000000288 .L0 
     /tmp/ccsErYNu.s:585    .text:0000000000000288 .L0 
     /tmp/ccsErYNu.s:587    .text:000000000000028c .L0 
     /tmp/ccsErYNu.s:588    .text:0000000000000290 .L0 
     /tmp/ccsErYNu.s:595    .text:00000000000002a8 .L0 
     /tmp/ccsErYNu.s:596    .text:00000000000002a8 .L0 
     /tmp/ccsErYNu.s:597    .text:00000000000002a8 .L0 
     /tmp/ccsErYNu.s:598    .text:00000000000002a8 .L0 
     /tmp/ccsErYNu.s:599    .text:00000000000002a8 .L0 
     /tmp/ccsErYNu.s:600    .text:00000000000002a8 .L0 
     /tmp/ccsErYNu.s:602    .text:00000000000002ac .L0 
     /tmp/ccsErYNu.s:611    .text:00000000000002bc .L0 
     /tmp/ccsErYNu.s:612    .text:00000000000002bc .L0 
     /tmp/ccsErYNu.s:613    .text:00000000000002bc .L0 
     /tmp/ccsErYNu.s:614    .text:00000000000002bc .L0 
     /tmp/ccsErYNu.s:615    .text:00000000000002bc .L0 
     /tmp/ccsErYNu.s:616    .text:00000000000002bc .L0 
     /tmp/ccsErYNu.s:617    .text:00000000000002bc .L0 
     /tmp/ccsErYNu.s:618    .text:00000000000002bc .L0 
     /tmp/ccsErYNu.s:628    .text:00000000000002d0 .L0 
     /tmp/ccsErYNu.s:636    .text:00000000000002ec .L0 
     /tmp/ccsErYNu.s:637    .text:00000000000002ec .L0 
     /tmp/ccsErYNu.s:639    .text:00000000000002f0 .L0 
     /tmp/ccsErYNu.s:640    .text:00000000000002f0 .L0 
     /tmp/ccsErYNu.s:645    .text:00000000000002f4 .L0 
     /tmp/ccsErYNu.s:647    .text:00000000000002f8 .L0 
     /tmp/ccsErYNu.s:649    .text:00000000000002fc .L0 
     /tmp/ccsErYNu.s:650    .text:00000000000002fc .L0 
     /tmp/ccsErYNu.s:652    .text:0000000000000300 .L0 
     /tmp/ccsErYNu.s:653    .text:0000000000000300 .L0 
     /tmp/ccsErYNu.s:655    .text:0000000000000304 .L0 
     /tmp/ccsErYNu.s:658    .text:0000000000000310 .L0 
     /tmp/ccsErYNu.s:659    .text:0000000000000310 .L0 
     /tmp/ccsErYNu.s:661    .text:0000000000000314 .L0 
     /tmp/ccsErYNu.s:664    .text:000000000000031c .L0 
     /tmp/ccsErYNu.s:666    .text:0000000000000320 .L0 
     /tmp/ccsErYNu.s:667    .text:0000000000000320 .L0 
     /tmp/ccsErYNu.s:669    .text:0000000000000324 .L0 
     /tmp/ccsErYNu.s:671    .text:0000000000000328 .L0 
     /tmp/ccsErYNu.s:672    .text:0000000000000328 .L0 
     /tmp/ccsErYNu.s:675    .text:000000000000032c .L0 
     /tmp/ccsErYNu.s:676    .text:0000000000000330 .L0 
     /tmp/ccsErYNu.s:678    .text:0000000000000334 .L0 
     /tmp/ccsErYNu.s:679    .text:0000000000000334 .L0 
     /tmp/ccsErYNu.s:681    .text:0000000000000338 .L0 
     /tmp/ccsErYNu.s:684    .text:000000000000033c .L0 
GAS LISTING /tmp/ccsErYNu.s 			page 27


     /tmp/ccsErYNu.s:687    .text:0000000000000340 .L0 
     /tmp/ccsErYNu.s:690    .text:0000000000000344 .L0 
     /tmp/ccsErYNu.s:693    .text:0000000000000348 .L0 
     /tmp/ccsErYNu.s:698    .text:000000000000034c .L0 
     /tmp/ccsErYNu.s:701    .text:0000000000000350 .L0 
     /tmp/ccsErYNu.s:704    .text:0000000000000354 .L0 
     /tmp/ccsErYNu.s:705    .text:0000000000000354 .L0 
     /tmp/ccsErYNu.s:706    .text:0000000000000354 .L0 
     /tmp/ccsErYNu.s:707    .text:0000000000000354 .L0 
     /tmp/ccsErYNu.s:708    .text:0000000000000354 .L0 
     /tmp/ccsErYNu.s:709    .text:0000000000000354 .L0 
     /tmp/ccsErYNu.s:710    .text:0000000000000354 .L0 
     /tmp/ccsErYNu.s:712    .text:0000000000000354 .L0 
     /tmp/ccsErYNu.s:714    .text:000000000000035c .L0 
     /tmp/ccsErYNu.s:720    .text:000000000000035c _ZNK9ThreadABI10getContextEv
     /tmp/ccsErYNu.s:723    .text:000000000000035c .L0 
     /tmp/ccsErYNu.s:725    .text:000000000000035c .L0 
     /tmp/ccsErYNu.s:726    .text:0000000000000360 .L0 
     /tmp/ccsErYNu.s:728    .text:0000000000000364 .L0 
     /tmp/ccsErYNu.s:730    .text:0000000000000368 .L0 
     /tmp/ccsErYNu.s:732    .text:0000000000000368 .L0 
     /tmp/ccsErYNu.s:733    .text:0000000000000368 .L0 
     /tmp/ccsErYNu.s:736    .text:0000000000000370 .L0 
     /tmp/ccsErYNu.s:737    .text:0000000000000370 .L0 
     /tmp/ccsErYNu.s:739    .text:0000000000000374 .L0 
     /tmp/ccsErYNu.s:741    .text:0000000000000378 .L0 
     /tmp/ccsErYNu.s:747    .text:0000000000000378 _ZNK9ThreadABI8getStackEv
     /tmp/ccsErYNu.s:750    .text:0000000000000378 .L0 
     /tmp/ccsErYNu.s:752    .text:0000000000000378 .L0 
     /tmp/ccsErYNu.s:753    .text:000000000000037c .L0 
     /tmp/ccsErYNu.s:755    .text:0000000000000380 .L0 
     /tmp/ccsErYNu.s:757    .text:0000000000000384 .L0 
     /tmp/ccsErYNu.s:759    .text:0000000000000384 .L0 
     /tmp/ccsErYNu.s:760    .text:0000000000000384 .L0 
     /tmp/ccsErYNu.s:763    .text:000000000000038c .L0 
     /tmp/ccsErYNu.s:764    .text:000000000000038c .L0 
     /tmp/ccsErYNu.s:766    .text:0000000000000390 .L0 
     /tmp/ccsErYNu.s:768    .text:0000000000000394 .L0 
     /tmp/ccsErYNu.s:774    .text:0000000000000394 _ZN9ThreadABI8setStackEPv
     /tmp/ccsErYNu.s:777    .text:0000000000000394 .L0 
     /tmp/ccsErYNu.s:779    .text:0000000000000394 .L0 
     /tmp/ccsErYNu.s:780    .text:0000000000000398 .L0 
     /tmp/ccsErYNu.s:782    .text:000000000000039c .L0 
     /tmp/ccsErYNu.s:784    .text:00000000000003a0 .L0 
     /tmp/ccsErYNu.s:786    .text:00000000000003a0 .L0 
     /tmp/ccsErYNu.s:787    .text:00000000000003a0 .L0 
     /tmp/ccsErYNu.s:789    .text:00000000000003a4 .L0 
     /tmp/ccsErYNu.s:790    .text:00000000000003a8 .L0 
     /tmp/ccsErYNu.s:791    .text:00000000000003a8 .L0 
     /tmp/ccsErYNu.s:793    .text:00000000000003ac .L0 
     /tmp/ccsErYNu.s:795    .text:00000000000003b0 .L0 
     /tmp/ccsErYNu.s:801    .text:00000000000003b0 _ZNK9ThreadABI12getSleeptimeEv
     /tmp/ccsErYNu.s:804    .text:00000000000003b0 .L0 
     /tmp/ccsErYNu.s:806    .text:00000000000003b0 .L0 
     /tmp/ccsErYNu.s:807    .text:00000000000003b4 .L0 
     /tmp/ccsErYNu.s:809    .text:00000000000003b8 .L0 
     /tmp/ccsErYNu.s:811    .text:00000000000003bc .L0 
GAS LISTING /tmp/ccsErYNu.s 			page 28


     /tmp/ccsErYNu.s:813    .text:00000000000003bc .L0 
     /tmp/ccsErYNu.s:814    .text:00000000000003bc .L0 
     /tmp/ccsErYNu.s:817    .text:00000000000003c4 .L0 
     /tmp/ccsErYNu.s:818    .text:00000000000003c4 .L0 
     /tmp/ccsErYNu.s:820    .text:00000000000003c8 .L0 
     /tmp/ccsErYNu.s:822    .text:00000000000003cc .L0 
     /tmp/ccsErYNu.s:828    .text:00000000000003cc _ZN9ThreadABI14decrementsleepEv
     /tmp/ccsErYNu.s:831    .text:00000000000003cc .L0 
     /tmp/ccsErYNu.s:833    .text:00000000000003cc .L0 
     /tmp/ccsErYNu.s:834    .text:00000000000003d0 .L0 
     /tmp/ccsErYNu.s:836    .text:00000000000003d4 .L0 
     /tmp/ccsErYNu.s:838    .text:00000000000003d8 .L0 
     /tmp/ccsErYNu.s:840    .text:00000000000003d8 .L0 
     /tmp/ccsErYNu.s:841    .text:00000000000003d8 .L0 
     /tmp/ccsErYNu.s:843    .text:00000000000003dc .L0 
     /tmp/ccsErYNu.s:845    .text:00000000000003e0 .L0 
     /tmp/ccsErYNu.s:847    .text:00000000000003e4 .L0 
     /tmp/ccsErYNu.s:850    .text:00000000000003ec .L0 
     /tmp/ccsErYNu.s:851    .text:00000000000003ec .L0 
     /tmp/ccsErYNu.s:853    .text:00000000000003f0 .L0 
     /tmp/ccsErYNu.s:855    .text:00000000000003f4 .L0 
     /tmp/ccsErYNu.s:870    .bss:0000000000000008 _ZN9ThreadABI4idleE
     /tmp/ccsErYNu.s:874    .bss:0000000000000010 _ZN9ThreadABI4mainE
     /tmp/ccsErYNu.s:866    .bss:0000000000000000 _ZN9ThreadABI7runningE
     /tmp/ccsErYNu.s:863    .bss:0000000000000000 .LANCHOR0
     /tmp/ccsErYNu.s:881    .text:00000000000003f4 .L0 
     /tmp/ccsErYNu.s:378    .text:0000000000000138 .L0 
     /tmp/ccsErYNu.s:401    .text:000000000000016c .L0 
     /tmp/ccsErYNu.s:545    .text:0000000000000248 .L0 
     /tmp/ccsErYNu.s:655    .text:0000000000000304 .L0 
     /tmp/ccsErYNu.s:392    .text:000000000000015c .L6
     /tmp/ccsErYNu.s:440    .text:00000000000001a8 .L9
     /tmp/ccsErYNu.s:451    .text:00000000000001c0 .L10
     /tmp/ccsErYNu.s:422    .text:0000000000000190 .L5
     /tmp/ccsErYNu.s:696    .text:000000000000034c .L17
     /tmp/ccsErYNu.s:703    .text:0000000000000354 .L18
     /tmp/ccsErYNu.s:673    .text:000000000000032c .L16
     /tmp/ccsErYNu.s:2197   .debug_abbrev:0000000000000000 .Ldebug_abbrev0
     /tmp/ccsErYNu.s:3844   .debug_str:00000000000007b1 .LASF119
     /tmp/ccsErYNu.s:3744   .debug_str:0000000000000457 .LASF120
     /tmp/ccsErYNu.s:3628   .debug_str:000000000000003c .LASF121
     /tmp/ccsErYNu.s:5      .text:0000000000000000 .Ltext0
     /tmp/ccsErYNu.s:877    .text:00000000000003f4 .Letext0
     /tmp/ccsErYNu.s:3618   .debug_line:0000000000000000 .Ldebug_line0
     /tmp/ccsErYNu.s:3766   .debug_str:0000000000000509 .LASF0
     /tmp/ccsErYNu.s:3784   .debug_str:0000000000000582 .LASF1
     /tmp/ccsErYNu.s:3748   .debug_str:0000000000000479 .LASF2
     /tmp/ccsErYNu.s:3722   .debug_str:00000000000003c8 .LASF4
     /tmp/ccsErYNu.s:3820   .debug_str:00000000000006c1 .LASF3
     /tmp/ccsErYNu.s:3646   .debug_str:0000000000000100 .LASF5
     /tmp/ccsErYNu.s:3678   .debug_str:0000000000000241 .LASF6
     /tmp/ccsErYNu.s:3788   .debug_str:00000000000005c0 .LASF7
     /tmp/ccsErYNu.s:3764   .debug_str:00000000000004f6 .LASF8
     /tmp/ccsErYNu.s:3856   .debug_str:00000000000008c2 .LASF9
     /tmp/ccsErYNu.s:3712   .debug_str:0000000000000368 .LASF10
     /tmp/ccsErYNu.s:3800   .debug_str:000000000000060a .LASF11
     /tmp/ccsErYNu.s:3848   .debug_str:0000000000000881 .LASF12
GAS LISTING /tmp/ccsErYNu.s 			page 29


     /tmp/ccsErYNu.s:3650   .debug_str:0000000000000129 .LASF13
     /tmp/ccsErYNu.s:3630   .debug_str:000000000000005b .LASF14
     /tmp/ccsErYNu.s:3660   .debug_str:0000000000000185 .LASF15
     /tmp/ccsErYNu.s:3812   .debug_str:0000000000000672 .LASF16
     /tmp/ccsErYNu.s:3672   .debug_str:000000000000021c .LASF17
     /tmp/ccsErYNu.s:3746   .debug_str:0000000000000469 .LASF23
     /tmp/ccsErYNu.s:3702   .debug_str:0000000000000315 .LASF46
     /tmp/ccsErYNu.s:3878   .debug_str:0000000000000960 .LASF18
     /tmp/ccsErYNu.s:3864   .debug_str:00000000000008f4 .LASF19
     /tmp/ccsErYNu.s:3668   .debug_str:00000000000001e6 .LASF20
     /tmp/ccsErYNu.s:3676   .debug_str:000000000000023c .LASF21
     /tmp/ccsErYNu.s:3692   .debug_str:00000000000002e0 .LASF22
     /tmp/ccsErYNu.s:3872   .debug_str:0000000000000911 .LASF24
     /tmp/ccsErYNu.s:3682   .debug_str:0000000000000276 .LASF25
     /tmp/ccsErYNu.s:3846   .debug_str:0000000000000875 .LASF32
     /tmp/ccsErYNu.s:3644   .debug_str:00000000000000dc .LASF34
     /tmp/ccsErYNu.s:3798   .debug_str:00000000000005fe .LASF36
     /tmp/ccsErYNu.s:3666   .debug_str:00000000000001c2 .LASF58
     /tmp/ccsErYNu.s:3740   .debug_str:0000000000000442 .LASF26
     /tmp/ccsErYNu.s:3752   .debug_str:000000000000048e .LASF27
     /tmp/ccsErYNu.s:3860   .debug_str:00000000000008da .LASF28
     /tmp/ccsErYNu.s:3762   .debug_str:00000000000004ec .LASF29
     /tmp/ccsErYNu.s:3674   .debug_str:0000000000000232 .LASF30
     /tmp/ccsErYNu.s:3742   .debug_str:000000000000044d .LASF31
     /tmp/ccsErYNu.s:3792   .debug_str:00000000000005dc .LASF33
     /tmp/ccsErYNu.s:3670   .debug_str:00000000000001f2 .LASF35
     /tmp/ccsErYNu.s:3624   .debug_str:0000000000000012 .LASF122
     /tmp/ccsErYNu.s:3648   .debug_str:0000000000000107 .LASF123
     /tmp/ccsErYNu.s:3780   .debug_str:0000000000000576 .LASF37
     /tmp/ccsErYNu.s:3664   .debug_str:00000000000001a8 .LASF38
     /tmp/ccsErYNu.s:3802   .debug_str:0000000000000619 .LASF39
     /tmp/ccsErYNu.s:3852   .debug_str:00000000000008af .LASF40
     /tmp/ccsErYNu.s:3716   .debug_str:0000000000000396 .LASF124
     /tmp/ccsErYNu.s:3858   .debug_str:00000000000008d2 .LASF41
     /tmp/ccsErYNu.s:3828   .debug_str:0000000000000706 .LASF42
     /tmp/ccsErYNu.s:3782   .debug_str:000000000000057c .LASF43
     /tmp/ccsErYNu.s:3724   .debug_str:00000000000003cf .LASF44
     /tmp/ccsErYNu.s:3824   .debug_str:00000000000006e4 .LASF45
     /tmp/ccsErYNu.s:3634   .debug_str:0000000000000081 .LASF47
     /tmp/ccsErYNu.s:3862   .debug_str:00000000000008e7 .LASF48
     /tmp/ccsErYNu.s:3720   .debug_str:00000000000003b6 .LASF50
     /tmp/ccsErYNu.s:3710   .debug_str:0000000000000358 .LASF49
     /tmp/ccsErYNu.s:3770   .debug_str:0000000000000535 .LASF51
     /tmp/ccsErYNu.s:3684   .debug_str:000000000000028f .LASF52
     /tmp/ccsErYNu.s:3704   .debug_str:000000000000031d .LASF53
     /tmp/ccsErYNu.s:3832   .debug_str:0000000000000719 .LASF54
     /tmp/ccsErYNu.s:3876   .debug_str:000000000000094d .LASF55
     /tmp/ccsErYNu.s:3760   .debug_str:00000000000004e7 .LASF56
     /tmp/ccsErYNu.s:3794   .debug_str:00000000000005f1 .LASF57
     /tmp/ccsErYNu.s:3626   .debug_str:000000000000002a .LASF59
     /tmp/ccsErYNu.s:3790   .debug_str:00000000000005d3 .LASF60
     /tmp/ccsErYNu.s:3778   .debug_str:000000000000055d .LASF62
     /tmp/ccsErYNu.s:3796   .debug_str:00000000000005f6 .LASF61
     /tmp/ccsErYNu.s:3758   .debug_str:00000000000004cf .LASF63
     /tmp/ccsErYNu.s:3696   .debug_str:00000000000002f0 .LASF64
     /tmp/ccsErYNu.s:3680   .debug_str:0000000000000248 .LASF65
     /tmp/ccsErYNu.s:3776   .debug_str:0000000000000552 .LASF66
GAS LISTING /tmp/ccsErYNu.s 			page 30


     /tmp/ccsErYNu.s:3698   .debug_str:00000000000002fe .LASF67
     /tmp/ccsErYNu.s:3834   .debug_str:000000000000072c .LASF68
     /tmp/ccsErYNu.s:3754   .debug_str:00000000000004b2 .LASF69
     /tmp/ccsErYNu.s:3870   .debug_str:0000000000000907 .LASF70
     /tmp/ccsErYNu.s:3814   .debug_str:0000000000000688 .LASF71
     /tmp/ccsErYNu.s:3654   .debug_str:000000000000014d .LASF72
     /tmp/ccsErYNu.s:3708   .debug_str:000000000000033e .LASF73
     /tmp/ccsErYNu.s:3786   .debug_str:0000000000000595 .LASF74
     /tmp/ccsErYNu.s:3636   .debug_str:0000000000000089 .LASF75
     /tmp/ccsErYNu.s:3806   .debug_str:000000000000063d .LASF76
     /tmp/ccsErYNu.s:3640   .debug_str:00000000000000b1 .LASF77
     /tmp/ccsErYNu.s:3642   .debug_str:00000000000000be .LASF78
     /tmp/ccsErYNu.s:3756   .debug_str:00000000000004c6 .LASF79
     /tmp/ccsErYNu.s:3738   .debug_str:0000000000000420 .LASF80
     /tmp/ccsErYNu.s:3732   .debug_str:0000000000000404 .LASF81
     /tmp/ccsErYNu.s:3838   .debug_str:0000000000000760 .LASF82
     /tmp/ccsErYNu.s:3734   .debug_str:000000000000040d .LASF83
     /tmp/ccsErYNu.s:3768   .debug_str:0000000000000516 .LASF84
     /tmp/ccsErYNu.s:3868   .debug_str:00000000000008fe .LASF85
     /tmp/ccsErYNu.s:3826   .debug_str:00000000000006ed .LASF86
     /tmp/ccsErYNu.s:3690   .debug_str:00000000000002d8 .LASF87
     /tmp/ccsErYNu.s:3730   .debug_str:00000000000003f6 .LASF88
     /tmp/ccsErYNu.s:3836   .debug_str:0000000000000741 .LASF89
     /tmp/ccsErYNu.s:3694   .debug_str:00000000000002ea .LASF90
     /tmp/ccsErYNu.s:3632   .debug_str:000000000000006b .LASF91
     /tmp/ccsErYNu.s:3622   .debug_str:0000000000000009 .LASF92
     /tmp/ccsErYNu.s:3810   .debug_str:0000000000000667 .LASF125
     /tmp/ccsErYNu.s:3818   .debug_str:00000000000006a5 .LASF126
     /tmp/ccsErYNu.s:3656   .debug_str:0000000000000161 .LASF93
     /tmp/ccsErYNu.s:3736   .debug_str:000000000000041a .LASF94
     /tmp/ccsErYNu.s:3808   .debug_str:0000000000000662 .LASF127
     /tmp/ccsErYNu.s:3728   .debug_str:00000000000003f1 .LASF95
     /tmp/ccsErYNu.s:3772   .debug_str:0000000000000547 .LASF96
     /tmp/ccsErYNu.s:3816   .debug_str:000000000000069d .LASF97
     /tmp/ccsErYNu.s:3804   .debug_str:000000000000062f .LASF128
     /tmp/ccsErYNu.s:3686   .debug_str:000000000000029f .LASF129
     /tmp/ccsErYNu.s:3658   .debug_str:000000000000017b .LASF98
     /tmp/ccsErYNu.s:3830   .debug_str:000000000000070c .LASF99
     /tmp/ccsErYNu.s:3850   .debug_str:0000000000000890 .LASF100
     /tmp/ccsErYNu.s:3874   .debug_str:000000000000093e .LASF101
     /tmp/ccsErYNu.s:3714   .debug_str:0000000000000376 .LASF102
     /tmp/ccsErYNu.s:3822   .debug_str:00000000000006d3 .LASF103
     /tmp/ccsErYNu.s:3688   .debug_str:00000000000002cd .LASF104
     /tmp/ccsErYNu.s:3842   .debug_str:0000000000000794 .LASF105
     /tmp/ccsErYNu.s:3854   .debug_str:00000000000008b9 .LASF106
     /tmp/ccsErYNu.s:3718   .debug_str:000000000000039c .LASF107
     /tmp/ccsErYNu.s:3620   .debug_str:0000000000000000 .LASF108
     /tmp/ccsErYNu.s:3840   .debug_str:000000000000077a .LASF109
     /tmp/ccsErYNu.s:3700   .debug_str:0000000000000310 .LASF110
     /tmp/ccsErYNu.s:3662   .debug_str:0000000000000191 .LASF111
     /tmp/ccsErYNu.s:3638   .debug_str:000000000000009d .LASF112
     /tmp/ccsErYNu.s:3652   .debug_str:0000000000000139 .LASF113
     /tmp/ccsErYNu.s:829    .text:00000000000003cc .LFB23
     /tmp/ccsErYNu.s:856    .text:00000000000003f4 .LFE23
     /tmp/ccsErYNu.s:3866   .debug_str:00000000000008f9 .LASF114
     /tmp/ccsErYNu.s:3374   .debug_loc:0000000000000000 .LLST15
     /tmp/ccsErYNu.s:802    .text:00000000000003b0 .LFB22
GAS LISTING /tmp/ccsErYNu.s 			page 31


     /tmp/ccsErYNu.s:823    .text:00000000000003cc .LFE22
     /tmp/ccsErYNu.s:3388   .debug_loc:0000000000000039 .LLST14
     /tmp/ccsErYNu.s:775    .text:0000000000000394 .LFB21
     /tmp/ccsErYNu.s:796    .text:00000000000003b0 .LFE21
     /tmp/ccsErYNu.s:748    .text:0000000000000378 .LFB20
     /tmp/ccsErYNu.s:769    .text:0000000000000394 .LFE20
     /tmp/ccsErYNu.s:3402   .debug_loc:0000000000000072 .LLST13
     /tmp/ccsErYNu.s:721    .text:000000000000035c .LFB19
     /tmp/ccsErYNu.s:742    .text:0000000000000378 .LFE19
     /tmp/ccsErYNu.s:3416   .debug_loc:00000000000000ab .LLST12
     /tmp/ccsErYNu.s:526    .text:000000000000022c .LFB18
     /tmp/ccsErYNu.s:574    .text:0000000000000288 .LFE18
     /tmp/ccsErYNu.s:542    .text:0000000000000248 .LVL17
     /tmp/ccsErYNu.s:561    .text:0000000000000274 .LVL19
     /tmp/ccsErYNu.s:580    .text:0000000000000288 .LFB17
     /tmp/ccsErYNu.s:715    .text:000000000000035c .LFE17
     /tmp/ccsErYNu.s:3750   .debug_str:0000000000000487 .LASF115
     /tmp/ccsErYNu.s:3429   .debug_loc:00000000000000e3 .LLST2
     /tmp/ccsErYNu.s:3706   .debug_str:0000000000000330 .LASF116
     /tmp/ccsErYNu.s:3462   .debug_loc:000000000000016b .LLST3
     /tmp/ccsErYNu.s:3488   .debug_loc:00000000000001dd .LLST4
     /tmp/ccsErYNu.s:3880   .debug_str:0000000000000965 .LASF117
     /tmp/ccsErYNu.s:3514   .debug_loc:000000000000024f .LLST5
     /tmp/ccsErYNu.s:609    .text:00000000000002bc .LBB16
     /tmp/ccsErYNu.s:624    .text:00000000000002d0 .LBE16
     /tmp/ccsErYNu.s:3540   .debug_loc:00000000000002c1 .LLST6
     /tmp/ccsErYNu.s:3549   .debug_loc:00000000000002e6 .LLST7
     /tmp/ccsErYNu.s:3557   .debug_loc:000000000000030a .LLST8
     /tmp/ccsErYNu.s:619    .text:00000000000002c4 .LVL22
     /tmp/ccsErYNu.s:622    .text:00000000000002d0 .LVL23
     /tmp/ccsErYNu.s:625    .text:00000000000002d0 .LBB18
     /tmp/ccsErYNu.s:643    .text:00000000000002f4 .LBE18
     /tmp/ccsErYNu.s:3566   .debug_loc:000000000000032f .LLST9
     /tmp/ccsErYNu.s:3573   .debug_loc:0000000000000352 .LLST10
     /tmp/ccsErYNu.s:3580   .debug_loc:0000000000000375 .LLST11
     /tmp/ccsErYNu.s:361    .text:0000000000000120 .LFB16
     /tmp/ccsErYNu.s:481    .text:00000000000001f4 .LFE16
     /tmp/ccsErYNu.s:3587   .debug_loc:0000000000000398 .LLST0
     /tmp/ccsErYNu.s:453    .text:00000000000001c0 .LBB14
     /tmp/ccsErYNu.s:476    .text:00000000000001f0 .LBE14
     /tmp/ccsErYNu.s:461    .text:00000000000001cc .LVL10
     /tmp/ccsErYNu.s:465    .text:00000000000001d8 .LVL11
     /tmp/ccsErYNu.s:471    .text:00000000000001e4 .LVL12
     /tmp/ccsErYNu.s:475    .text:00000000000001f0 .LVL13
     /tmp/ccsErYNu.s:410    .text:0000000000000184 .LBB12
     /tmp/ccsErYNu.s:418    .text:0000000000000188 .LBE12
     /tmp/ccsErYNu.s:3598   .debug_loc:00000000000003ce .LLST1
     /tmp/ccsErYNu.s:396    .text:0000000000000164 .LVL1
     /tmp/ccsErYNu.s:399    .text:000000000000016c .LVL2
     /tmp/ccsErYNu.s:407    .text:0000000000000184 .LVL3
     /tmp/ccsErYNu.s:445    .text:00000000000001b0 .LVL7
     /tmp/ccsErYNu.s:449    .text:00000000000001bc .LVL8
     /tmp/ccsErYNu.s:487    .text:00000000000001f4 .LFB15
     /tmp/ccsErYNu.s:520    .text:000000000000022c .LFE15
     /tmp/ccsErYNu.s:501    .text:000000000000020c .LVL14
     /tmp/ccsErYNu.s:505    .text:0000000000000214 .LVL15
     /tmp/ccsErYNu.s:509    .text:000000000000021c .LVL16
GAS LISTING /tmp/ccsErYNu.s 			page 32


     /tmp/ccsErYNu.s:186    .text:0000000000000090 .LFB14
     /tmp/ccsErYNu.s:355    .text:0000000000000120 .LFE14
     /tmp/ccsErYNu.s:10     .text:0000000000000000 .LFB13
     /tmp/ccsErYNu.s:180    .text:0000000000000090 .LFE13
     /tmp/ccsErYNu.s:3774   .debug_str:000000000000054d .LASF118
     /tmp/ccsErYNu.s:3726   .debug_str:00000000000003d7 .LASF130
     /tmp/ccsErYNu.s:832    .text:00000000000003cc .LVL39
     /tmp/ccsErYNu.s:848    .text:00000000000003e8 .LVL40
     /tmp/ccsErYNu.s:805    .text:00000000000003b0 .LVL37
     /tmp/ccsErYNu.s:815    .text:00000000000003c0 .LVL38
     /tmp/ccsErYNu.s:751    .text:0000000000000378 .LVL34
     /tmp/ccsErYNu.s:761    .text:0000000000000388 .LVL35
     /tmp/ccsErYNu.s:724    .text:000000000000035c .LVL32
     /tmp/ccsErYNu.s:734    .text:000000000000036c .LVL33
     /tmp/ccsErYNu.s:583    .text:0000000000000288 .LVL20
     /tmp/ccsErYNu.s:682    .text:0000000000000338 .LVL25
     /tmp/ccsErYNu.s:695    .text:000000000000034c .LVL29
     /tmp/ccsErYNu.s:699    .text:0000000000000350 .LVL30
     /tmp/ccsErYNu.s:702    .text:0000000000000354 .LVL31
     /tmp/ccsErYNu.s:691    .text:0000000000000344 .LVL28
     /tmp/ccsErYNu.s:688    .text:0000000000000340 .LVL27
     /tmp/ccsErYNu.s:685    .text:000000000000033c .LVL26
     /tmp/ccsErYNu.s:608    .text:00000000000002bc .LVL21
     /tmp/ccsErYNu.s:641    .text:00000000000002f4 .LVL24
     /tmp/ccsErYNu.s:379    .text:0000000000000140 .LVL0
     /tmp/ccsErYNu.s:433    .text:000000000000019c .LVL5
     /tmp/ccsErYNu.s:439    .text:00000000000001a8 .LVL6
     /tmp/ccsErYNu.s:416    .text:0000000000000188 .LVL4
     /tmp/ccsErYNu.s:882    .debug_info:0000000000000000 .Ldebug_info0

UNDEFINED SYMBOLS
_ZN12SchedulerABI20getInstanceSchedulerEv
_ZN12SchedulerABI3getEv
_ZN9ThreadABI13contextswitchEPNS_7ContextES1_
_ZN12SchedulerABI3putEP9ThreadABI
_ZN15MemoryAllocator11getInstanceEv
_ZN15MemoryAllocator10MemoryFreeEPv
_ZN9ThreadABI10popSppSpieEv
_ZN15MemoryAllocator11MemoryAllocEm
